libexiv2.so.14:WXMPIterator_DecrementRefCount_1
libexiv2.so.14:WXMPIterator_IncrementRefCount_1
libexiv2.so.14:WXMPIterator_Next_1
libexiv2.so.14:WXMPIterator_PropCTor_1
libexiv2.so.14:WXMPIterator_Skip_1
libexiv2.so.14:WXMPIterator_TableCTor_1
libexiv2.so.14:WXMPIterator_Unlock_1
libexiv2.so.14:WXMPMeta_AppendArrayItem_1
libexiv2.so.14:WXMPMeta_CTor_1
libexiv2.so.14:WXMPMeta_Clone_1
libexiv2.so.14:WXMPMeta_CountArrayItems_1
libexiv2.so.14:WXMPMeta_DecrementRefCount_1
libexiv2.so.14:WXMPMeta_DeleteAlias_1
libexiv2.so.14:WXMPMeta_DeleteArrayItem_1
libexiv2.so.14:WXMPMeta_DeleteNamespace_1
libexiv2.so.14:WXMPMeta_DeleteProperty_1
libexiv2.so.14:WXMPMeta_DeleteQualifier_1
libexiv2.so.14:WXMPMeta_DeleteStructField_1
libexiv2.so.14:WXMPMeta_DoesArrayItemExist_1
libexiv2.so.14:WXMPMeta_DoesPropertyExist_1
libexiv2.so.14:WXMPMeta_DoesQualifierExist_1
libexiv2.so.14:WXMPMeta_DoesStructFieldExist_1
libexiv2.so.14:WXMPMeta_DumpAliases_1
libexiv2.so.14:WXMPMeta_DumpNamespaces_1
libexiv2.so.14:WXMPMeta_DumpObject_1
libexiv2.so.14:WXMPMeta_Erase_1
libexiv2.so.14:WXMPMeta_GetArrayItem_1
libexiv2.so.14:WXMPMeta_GetGlobalOptions_1
libexiv2.so.14:WXMPMeta_GetLocalizedText_1
libexiv2.so.14:WXMPMeta_GetNamespacePrefix_1
libexiv2.so.14:WXMPMeta_GetNamespaceURI_1
libexiv2.so.14:WXMPMeta_GetObjectName_1
libexiv2.so.14:WXMPMeta_GetObjectOptions_1
libexiv2.so.14:WXMPMeta_GetProperty_1
libexiv2.so.14:WXMPMeta_GetProperty_Bool_1
libexiv2.so.14:WXMPMeta_GetProperty_Date_1
libexiv2.so.14:WXMPMeta_GetProperty_Float_1
libexiv2.so.14:WXMPMeta_GetProperty_Int64_1
libexiv2.so.14:WXMPMeta_GetProperty_Int_1
libexiv2.so.14:WXMPMeta_GetQualifier_1
libexiv2.so.14:WXMPMeta_GetStructField_1
libexiv2.so.14:WXMPMeta_GetVersionInfo_1
libexiv2.so.14:WXMPMeta_IncrementRefCount_1
libexiv2.so.14:WXMPMeta_Initialize_1
libexiv2.so.14:WXMPMeta_ParseFromBuffer_1
libexiv2.so.14:WXMPMeta_RegisterAlias_1
libexiv2.so.14:WXMPMeta_RegisterNamespace_1
libexiv2.so.14:WXMPMeta_RegisterStandardAliases_1
libexiv2.so.14:WXMPMeta_ResolveAlias_1
libexiv2.so.14:WXMPMeta_SerializeToBuffer_1
libexiv2.so.14:WXMPMeta_SetArrayItem_1
libexiv2.so.14:WXMPMeta_SetGlobalOptions_1
libexiv2.so.14:WXMPMeta_SetLocalizedText_1
libexiv2.so.14:WXMPMeta_SetObjectName_1
libexiv2.so.14:WXMPMeta_SetObjectOptions_1
libexiv2.so.14:WXMPMeta_SetProperty_1
libexiv2.so.14:WXMPMeta_SetProperty_Bool_1
libexiv2.so.14:WXMPMeta_SetProperty_Date_1
libexiv2.so.14:WXMPMeta_SetProperty_Float_1
libexiv2.so.14:WXMPMeta_SetProperty_Int64_1
libexiv2.so.14:WXMPMeta_SetProperty_Int_1
libexiv2.so.14:WXMPMeta_SetQualifier_1
libexiv2.so.14:WXMPMeta_SetStructField_1
libexiv2.so.14:WXMPMeta_Sort_1
libexiv2.so.14:WXMPMeta_Terminate_1
libexiv2.so.14:WXMPMeta_UnlockObject_1
libexiv2.so.14:WXMPMeta_Unlock_1
libexiv2.so.14:WXMPUtils_AppendProperties_1
libexiv2.so.14:WXMPUtils_CatenateArrayItems_1
libexiv2.so.14:WXMPUtils_CompareDateTime_1
libexiv2.so.14:WXMPUtils_ComposeArrayItemPath_1
libexiv2.so.14:WXMPUtils_ComposeFieldSelector_1
libexiv2.so.14:WXMPUtils_ComposeLangSelector_1
libexiv2.so.14:WXMPUtils_ComposeQualifierPath_1
libexiv2.so.14:WXMPUtils_ComposeStructFieldPath_1
libexiv2.so.14:WXMPUtils_ConvertFromBool_1
libexiv2.so.14:WXMPUtils_ConvertFromDate_1
libexiv2.so.14:WXMPUtils_ConvertFromFloat_1
libexiv2.so.14:WXMPUtils_ConvertFromInt64_1
libexiv2.so.14:WXMPUtils_ConvertFromInt_1
libexiv2.so.14:WXMPUtils_ConvertToBool_1
libexiv2.so.14:WXMPUtils_ConvertToDate_1
libexiv2.so.14:WXMPUtils_ConvertToFloat_1
libexiv2.so.14:WXMPUtils_ConvertToInt64_1
libexiv2.so.14:WXMPUtils_ConvertToInt_1
libexiv2.so.14:WXMPUtils_ConvertToLocalTime_1
libexiv2.so.14:WXMPUtils_ConvertToUTCTime_1
libexiv2.so.14:WXMPUtils_CurrentDateTime_1
libexiv2.so.14:WXMPUtils_DecodeFromBase64_1
libexiv2.so.14:WXMPUtils_DuplicateSubtree_1
libexiv2.so.14:WXMPUtils_EncodeToBase64_1
libexiv2.so.14:WXMPUtils_MergeFromJPEG_1
libexiv2.so.14:WXMPUtils_PackageForJPEG_1
libexiv2.so.14:WXMPUtils_RemoveProperties_1
libexiv2.so.14:WXMPUtils_SeparateArrayItems_1
libexiv2.so.14:WXMPUtils_SetTimeZone_1
libexiv2.so.14:WXMPUtils_UnlockIter_1
libexiv2.so.14:WXMPUtils_Unlock_1
libexiv2.so.14:XMP_NewExpatAdapter
libexiv2.so.14:_Z10ProcessRDFP8XMP_NodeRK8XML_Nodem
libexiv2.so.14:_Z11ExpandXPathPKcS0_PSt6vectorI13XPathStepInfoSaIS2_EE
libexiv2.so.14:_Z12CloneSubtreePK8XMP_NodePS_
libexiv2.so.14:_Z12ComposeXPathRKSt6vectorI13XPathStepInfoSaIS0_EEPNSt7__cxx1112basic_stringIcSt11char_traitsIcESaIcEEE
libexiv2.so.14:_Z12MD5TransformPjPKj
libexiv2.so.14:_Z13DetectAltTextP8XMP_Node
libexiv2.so.14:_Z13FindChildNodeP8XMP_NodePKcbPN9__gnu_cxx17__normal_iteratorIPS0_St6vectorIS0_SaIS0_EEEE
libexiv2.so.14:_Z13ToUTF16NativePKhmPNSt7__cxx1112basic_stringIcSt11char_traitsIcESaIcEEE
libexiv2.so.14:_Z13ToUTF32NativePKhmPNSt7__cxx1112basic_stringIcSt11char_traitsIcESaIcEEE
libexiv2.so.14:_Z13XMP_InitMutexP15pthread_mutex_t
libexiv2.so.14:_Z13XMP_TermMutexR15pthread_mutex_t
libexiv2.so.14:_Z14CloneOffspringPK8XMP_NodePS_
libexiv2.so.14:_Z14FindSchemaNodeP8XMP_NodePKcbPN9__gnu_cxx17__normal_iteratorIPS0_St6vectorIS0_SaIS0_EEEE
libexiv2.so.14:_Z14LookupLangItemPK8XMP_NodeRNSt7__cxx1112basic_stringIcSt11char_traitsIcESaIcEEE
libexiv2.so.14:_Z14SortNamedNodesRSt6vectorIP8XMP_NodeSaIS1_EE
libexiv2.so.14:_Z15CompareSubtreesRK8XMP_NodeS1_
libexiv2.so.14:_Z15FromUTF16NativePKtmPNSt7__cxx1112basic_stringIcSt11char_traitsIcESaIcEEE
libexiv2.so.14:_Z15FromUTF32NativePKmmPNSt7__cxx1112basic_stringIcSt11char_traitsIcESaIcEEE
libexiv2.so.14:_Z16VerifySetOptionsmPKc
libexiv2.so.14:_Z17CodePoint_to_UTF8mPhmPm
libexiv2.so.14:_Z17DeleteEmptySchemaP8XMP_Node
libexiv2.so.14:_Z17FindQualifierNodeP8XMP_NodePKcbPN9__gnu_cxx17__normal_iteratorIPS0_St6vectorIS0_SaIS0_EEEE
libexiv2.so.14:_Z18NormalizeLangArrayP8XMP_Node
libexiv2.so.14:_Z18NormalizeLangValuePNSt7__cxx1112basic_stringIcSt11char_traitsIcESaIcEEE
libexiv2.so.14:_Z19CodePoint_from_UTF8PKhmPmS1_
libexiv2.so.14:_Z19LookupFieldSelectorPK8XMP_NodePKcS3_
libexiv2.so.14:_Z22XMP_ExitCriticalRegionR15pthread_mutex_t
libexiv2.so.14:_Z23XMP_EnterCriticalRegionR15pthread_mutex_t
libexiv2.so.14:_Z28InitializeUnicodeConversionsv
libexiv2.so.14:_Z3addPN5Exiv28Internal10CiffHeaderE
libexiv2.so.14:_Z4helpv
libexiv2.so.14:_Z5writeRKNSt7__cxx1112basic_stringIcSt11char_traitsIcESaIcEEEPKN5Exiv28Internal10CiffHeaderE
libexiv2.so.14:_Z6removePN5Exiv28Internal10CiffHeaderE
libexiv2.so.14:_Z7MD5InitP7MD5_CTX
libexiv2.so.14:_Z7ToUTF16PKhmPNSt7__cxx1112basic_stringIcSt11char_traitsIcESaIcEEEb
libexiv2.so.14:_Z7ToUTF32PKhmPNSt7__cxx1112basic_stringIcSt11char_traitsIcESaIcEEEb
libexiv2.so.14:_Z8FindNodeP8XMP_NodeRKSt6vectorI13XPathStepInfoSaIS2_EEbmPN9__gnu_cxx17__normal_iteratorIPS0_S1_IS0_SaIS0_EEEE
libexiv2.so.14:_Z8MD5FinalPhP7MD5_CTX
libexiv2.so.14:_Z9FromUTF16PKtmPNSt7__cxx1112basic_stringIcSt11char_traitsIcESaIcEEEb
libexiv2.so.14:_Z9FromUTF32PKmmPNSt7__cxx1112basic_stringIcSt11char_traitsIcESaIcEEEb
libexiv2.so.14:_Z9MD5UpdateP7MD5_CTXPKhj
libexiv2.so.14:_Z9SwapUTF16PKtPtm
libexiv2.so.14:_Z9SwapUTF32PKmPmm
libexiv2.so.14:_ZN11XMPIterator10InitializeEv
libexiv2.so.14:_ZN11XMPIterator10UnlockIterEm
libexiv2.so.14:_ZN11XMPIterator4NextEPPKcPmS2_S3_S2_S3_S3_
libexiv2.so.14:_ZN11XMPIterator4SkipEm
libexiv2.so.14:_ZN11XMPIterator6UnlockEm
libexiv2.so.14:_ZN11XMPIterator9TerminateEv
libexiv2.so.14:_ZN11XMPIteratorC1EPKcS1_m
libexiv2.so.14:_ZN11XMPIteratorC1ERK7XMPMetaPKcS4_m
libexiv2.so.14:_ZN11XMPIteratorC2EPKcS1_m
libexiv2.so.14:_ZN11XMPIteratorC2ERK7XMPMetaPKcS4_m
libexiv2.so.14:_ZN11XMPIteratorD0Ev
libexiv2.so.14:_ZN11XMPIteratorD1Ev
libexiv2.so.14:_ZN11XMPIteratorD2Ev
libexiv2.so.14:_ZN12ExpatAdapter11ParseBufferEPKvmb
libexiv2.so.14:_ZN12ExpatAdapterC1Ev
libexiv2.so.14:_ZN12ExpatAdapterC2Ev
libexiv2.so.14:_ZN12ExpatAdapterD0Ev
libexiv2.so.14:_ZN12ExpatAdapterD1Ev
libexiv2.so.14:_ZN12ExpatAdapterD2Ev
libexiv2.so.14:_ZN5Exiv210AsciiValue4readERKNSt7__cxx1112basic_stringIcSt11char_traitsIcESaIcEEE
libexiv2.so.14:_ZN5Exiv210AsciiValueC1ERKNSt7__cxx1112basic_stringIcSt11char_traitsIcESaIcEEE
libexiv2.so.14:_ZN5Exiv210AsciiValueC1Ev
libexiv2.so.14:_ZN5Exiv210AsciiValueC2ERKNSt7__cxx1112basic_stringIcSt11char_traitsIcESaIcEEE
libexiv2.so.14:_ZN5Exiv210AsciiValueC2Ev
libexiv2.so.14:_ZN5Exiv210AsciiValueD0Ev
libexiv2.so.14:_ZN5Exiv210AsciiValueD1Ev
libexiv2.so.14:_ZN5Exiv210AsciiValueD2Ev
libexiv2.so.14:_ZN5Exiv210BasicErrorIcE6setMsgEv
libexiv2.so.14:_ZN5Exiv210ExifParser6decodeERNS_8ExifDataEPKhj
libexiv2.so.14:_ZN5Exiv210ExifParser6encodeERSt6vectorIhSaIhEEPKhjNS_9ByteOrderERKNS_8ExifDataE
libexiv2.so.14:_ZN5Exiv210ExifThumbCC1ERKNS_8ExifDataE
libexiv2.so.14:_ZN5Exiv210ExifThumbCC2ERKNS_8ExifDataE
libexiv2.so.14:_ZN5Exiv210IptcParser6decodeERNS_8IptcDataEPKhj
libexiv2.so.14:_ZN5Exiv210IptcParser6encodeERKNS_8IptcDataE
libexiv2.so.14:_ZN5Exiv210RecordInfoC1EtPKcS2_
libexiv2.so.14:_ZN5Exiv210RecordInfoC2EtPKcS2_
libexiv2.so.14:_ZN5Exiv210TiffParser6decodeERNS_8ExifDataERNS_8IptcDataERNS_7XmpDataEPKhj
libexiv2.so.14:_ZN5Exiv210TiffParser6encodeERNS_7BasicIoEPKhjNS_9ByteOrderERKNS_8ExifDataERKNS_8IptcDataERKNS_7XmpDataE
libexiv2.so.14:_ZN5Exiv210XmpSidecar10setCommentERKNSt7__cxx1112basic_stringIcSt11char_traitsIcESaIcEEE
libexiv2.so.14:_ZN5Exiv210XmpSidecar12readMetadataEv
libexiv2.so.14:_ZN5Exiv210XmpSidecar13writeMetadataEv
libexiv2.so.14:_ZN5Exiv210XmpSidecarC1ESt8auto_ptrINS_7BasicIoEEb
libexiv2.so.14:_ZN5Exiv210XmpSidecarC2ESt8auto_ptrINS_7BasicIoEEb
libexiv2.so.14:_ZN5Exiv210exvGettextEPKc
libexiv2.so.14:_ZN5Exiv210fileExistsERKNSt7__cxx1112basic_stringIcSt11char_traitsIcESaIcEEEb
libexiv2.so.14:_ZN5Exiv210isJpegTypeERNS_7BasicIoEb
libexiv2.so.14:_ZN5Exiv210isTiffTypeERNS_7BasicIoEb
libexiv2.so.14:_ZN5Exiv210parseFloatERKNSt7__cxx1112basic_stringIcSt11char_traitsIcESaIcEEERb
libexiv2.so.14:_ZN5Exiv210saturationERKNS_8ExifDataE
libexiv2.so.14:_ZN5Exiv211StringValueC1ERKNSt7__cxx1112basic_stringIcSt11char_traitsIcESaIcEEE
libexiv2.so.14:_ZN5Exiv211StringValueC1Ev
libexiv2.so.14:_ZN5Exiv211StringValueC2ERKNSt7__cxx1112basic_stringIcSt11char_traitsIcESaIcEEE
libexiv2.so.14:_ZN5Exiv211StringValueC2Ev
libexiv2.so.14:_ZN5Exiv211StringValueD0Ev
libexiv2.so.14:_ZN5Exiv211StringValueD1Ev
libexiv2.so.14:_ZN5Exiv211StringValueD2Ev
libexiv2.so.14:_ZN5Exiv211focalLengthERKNS_8ExifDataE
libexiv2.so.14:_ZN5Exiv211getRationalEPKhNS_9ByteOrderE
libexiv2.so.14:_ZN5Exiv211isBigEndianEv
libexiv2.so.14:_ZN5Exiv211orientationERKNS_8ExifDataE
libexiv2.so.14:_ZN5Exiv211testVersionEiii
libexiv2.so.14:_ZN5Exiv212CommentValue11CharsetInfo15charsetIdByCodeERKNSt7__cxx1112basic_stringIcSt11char_traitsIcESaIcEEE
libexiv2.so.14:_ZN5Exiv212CommentValue11CharsetInfo15charsetIdByNameERKNSt7__cxx1112basic_stringIcSt11char_traitsIcESaIcEEE
libexiv2.so.14:_ZN5Exiv212CommentValue11CharsetInfo4codeENS0_9CharsetIdE
libexiv2.so.14:_ZN5Exiv212CommentValue11CharsetInfo4nameENS0_9CharsetIdE
libexiv2.so.14:_ZN5Exiv212CommentValue12CharsetTableC1ENS0_9CharsetIdEPKcS4_
libexiv2.so.14:_ZN5Exiv212CommentValue12CharsetTableC2ENS0_9CharsetIdEPKcS4_
libexiv2.so.14:_ZN5Exiv212CommentValue4readEPKhlNS_9ByteOrderE
libexiv2.so.14:_ZN5Exiv212CommentValue4readERKNSt7__cxx1112basic_stringIcSt11char_traitsIcESaIcEEE
libexiv2.so.14:_ZN5Exiv212CommentValueC1ERKNSt7__cxx1112basic_stringIcSt11char_traitsIcESaIcEEE
libexiv2.so.14:_ZN5Exiv212CommentValueC1Ev
libexiv2.so.14:_ZN5Exiv212CommentValueC2ERKNSt7__cxx1112basic_stringIcSt11char_traitsIcESaIcEEE
libexiv2.so.14:_ZN5Exiv212CommentValueC2Ev
libexiv2.so.14:_ZN5Exiv212CommentValueD0Ev
libexiv2.so.14:_ZN5Exiv212CommentValueD1Ev
libexiv2.so.14:_ZN5Exiv212CommentValueD2Ev
libexiv2.so.14:_ZN5Exiv212ImageFactory4openEPKhl
libexiv2.so.14:_ZN5Exiv212ImageFactory4openERKNSt7__cxx1112basic_stringIcSt11char_traitsIcESaIcEEEb
libexiv2.so.14:_ZN5Exiv212ImageFactory4openESt8auto_ptrINS_7BasicIoEE
libexiv2.so.14:_ZN5Exiv212ImageFactory6createEi
libexiv2.so.14:_ZN5Exiv212ImageFactory6createEiRKNSt7__cxx1112basic_stringIcSt11char_traitsIcESaIcEEE
libexiv2.so.14:_ZN5Exiv212ImageFactory6createEiSt8auto_ptrINS_7BasicIoEE
libexiv2.so.14:_ZN5Exiv212ImageFactory7getTypeEPKhl
libexiv2.so.14:_ZN5Exiv212ImageFactory7getTypeERKNSt7__cxx1112basic_stringIcSt11char_traitsIcESaIcEEE
libexiv2.so.14:_ZN5Exiv212ImageFactory7getTypeERNS_7BasicIoE
libexiv2.so.14:_ZN5Exiv212ImageFactory8createIoERKNSt7__cxx1112basic_stringIcSt11char_traitsIcESaIcEEEb
libexiv2.so.14:_ZN5Exiv212ImageFactory9checkModeEiNS_10MetadataIdE
libexiv2.so.14:_ZN5Exiv212ImageFactory9checkTypeEiRNS_7BasicIoEb
libexiv2.so.14:_ZN5Exiv212IptcDataSets10dataSetIdxERKNSt7__cxx1112basic_stringIcSt11char_traitsIcESaIcEEEt
libexiv2.so.14:_ZN5Exiv212IptcDataSets10dataSetIdxEtt
libexiv2.so.14:_ZN5Exiv212IptcDataSets10recordDescEt
libexiv2.so.14:_ZN5Exiv212IptcDataSets10recordNameB5cxx11Et
libexiv2.so.14:_ZN5Exiv212IptcDataSets11dataSetDescEtt
libexiv2.so.14:_ZN5Exiv212IptcDataSets11dataSetListERSo
libexiv2.so.14:_ZN5Exiv212IptcDataSets11dataSetNameB5cxx11Ett
libexiv2.so.14:_ZN5Exiv212IptcDataSets11dataSetTypeEtt
libexiv2.so.14:_ZN5Exiv212IptcDataSets12dataSetTitleEtt
libexiv2.so.14:_ZN5Exiv212IptcDataSets13dataSetPsNameEtt
libexiv2.so.14:_ZN5Exiv212IptcDataSets17dataSetRepeatableEtt
libexiv2.so.14:_ZN5Exiv212IptcDataSets18envelopeRecordListEv
libexiv2.so.14:_ZN5Exiv212IptcDataSets22application2RecordListEv
libexiv2.so.14:_ZN5Exiv212IptcDataSets7dataSetERKNSt7__cxx1112basic_stringIcSt11char_traitsIcESaIcEEEt
libexiv2.so.14:_ZN5Exiv212IptcDataSets8recordIdERKNSt7__cxx1112basic_stringIcSt11char_traitsIcESaIcEEE
libexiv2.so.14:_ZN5Exiv212LangAltValue4readERKNSt7__cxx1112basic_stringIcSt11char_traitsIcESaIcEEE
libexiv2.so.14:_ZN5Exiv212LangAltValueC1ERKNSt7__cxx1112basic_stringIcSt11char_traitsIcESaIcEEE
libexiv2.so.14:_ZN5Exiv212LangAltValueC1Ev
libexiv2.so.14:_ZN5Exiv212LangAltValueC2ERKNSt7__cxx1112basic_stringIcSt11char_traitsIcESaIcEEE
libexiv2.so.14:_ZN5Exiv212LangAltValueC2Ev
libexiv2.so.14:_ZN5Exiv212PreviewImageC1ERKNS_17PreviewPropertiesENS_7DataBufE
libexiv2.so.14:_ZN5Exiv212PreviewImageC1ERKS0_
libexiv2.so.14:_ZN5Exiv212PreviewImageC2ERKNS_17PreviewPropertiesENS_7DataBufE
libexiv2.so.14:_ZN5Exiv212PreviewImageC2ERKS0_
libexiv2.so.14:_ZN5Exiv212PreviewImageD1Ev
libexiv2.so.14:_ZN5Exiv212PreviewImageD2Ev
libexiv2.so.14:_ZN5Exiv212PreviewImageaSERKS0_
libexiv2.so.14:_ZN5Exiv212XmpTextValue4readERKNSt7__cxx1112basic_stringIcSt11char_traitsIcESaIcEEE
libexiv2.so.14:_ZN5Exiv212XmpTextValueC1ERKNSt7__cxx1112basic_stringIcSt11char_traitsIcESaIcEEE
libexiv2.so.14:_ZN5Exiv212XmpTextValueC1Ev
libexiv2.so.14:_ZN5Exiv212XmpTextValueC2ERKNSt7__cxx1112basic_stringIcSt11char_traitsIcESaIcEEE
libexiv2.so.14:_ZN5Exiv212XmpTextValueC2Ev
libexiv2.so.14:_ZN5Exiv212base64decodeEPKcPcm
libexiv2.so.14:_ZN5Exiv212base64encodeEPKvmPcm
libexiv2.so.14:_ZN5Exiv212exposureModeERKNS_8ExifDataE
libexiv2.so.14:_ZN5Exiv212exposureTimeERKNS_8ExifDataE
libexiv2.so.14:_ZN5Exiv212fileProtocolERKNSt7__cxx1112basic_stringIcSt11char_traitsIcESaIcEEE
libexiv2.so.14:_ZN5Exiv212getURationalEPKhNS_9ByteOrderE
libexiv2.so.14:_ZN5Exiv212imageQualityERKNS_8ExifDataE
libexiv2.so.14:_ZN5Exiv212meteringModeERKNS_8ExifDataE
libexiv2.so.14:_ZN5Exiv212serialNumberERKNS_8ExifDataE
libexiv2.so.14:_ZN5Exiv212whiteBalanceERKNS_8ExifDataE
libexiv2.so.14:_ZN5Exiv213XmpArrayValue4readERKNSt7__cxx1112basic_stringIcSt11char_traitsIcESaIcEEE
libexiv2.so.14:_ZN5Exiv213XmpArrayValueC1ENS_6TypeIdE
libexiv2.so.14:_ZN5Exiv213XmpArrayValueC2ENS_6TypeIdE
libexiv2.so.14:_ZN5Exiv213XmpProperties10registerNsERKNSt7__cxx1112basic_stringIcSt11char_traitsIcESaIcEEES8_
libexiv2.so.14:_ZN5Exiv213XmpProperties12propertyDescERKNS_6XmpKeyE
libexiv2.so.14:_ZN5Exiv213XmpProperties12propertyInfoERKNS_6XmpKeyE
libexiv2.so.14:_ZN5Exiv213XmpProperties12propertyListERKNSt7__cxx1112basic_stringIcSt11char_traitsIcESaIcEEE
libexiv2.so.14:_ZN5Exiv213XmpProperties12propertyTypeERKNS_6XmpKeyE
libexiv2.so.14:_ZN5Exiv213XmpProperties12unregisterNsERKNSt7__cxx1112basic_stringIcSt11char_traitsIcESaIcEEE
libexiv2.so.14:_ZN5Exiv213XmpProperties12unregisterNsEv
libexiv2.so.14:_ZN5Exiv213XmpProperties13printPropertyERSoRKNSt7__cxx1112basic_stringIcSt11char_traitsIcESaIcEEERKNS_5ValueE
libexiv2.so.14:_ZN5Exiv213XmpProperties13propertyTitleERKNS_6XmpKeyE
libexiv2.so.14:_ZN5Exiv213XmpProperties15printPropertiesERSoRKNSt7__cxx1112basic_stringIcSt11char_traitsIcESaIcEEE
libexiv2.so.14:_ZN5Exiv213XmpProperties16lookupNsRegistryERKNS_9XmpNsInfo6PrefixE
libexiv2.so.14:_ZN5Exiv213XmpProperties2nsERKNSt7__cxx1112basic_stringIcSt11char_traitsIcESaIcEEE
libexiv2.so.14:_ZN5Exiv213XmpProperties6nsDescERKNSt7__cxx1112basic_stringIcSt11char_traitsIcESaIcEEE
libexiv2.so.14:_ZN5Exiv213XmpProperties6nsInfoERKNSt7__cxx1112basic_stringIcSt11char_traitsIcESaIcEEE
libexiv2.so.14:_ZN5Exiv213XmpProperties6prefixERKNSt7__cxx1112basic_stringIcSt11char_traitsIcESaIcEEE
libexiv2.so.14:_ZN5Exiv213copyExifToXmpERKNS_8ExifDataERNS_7XmpDataE
libexiv2.so.14:_ZN5Exiv213copyIptcToXmpERKNS_8IptcDataERNS_7XmpDataEPKc
libexiv2.so.14:_ZN5Exiv213copyXmpToExifERKNS_7XmpDataERNS_8ExifDataE
libexiv2.so.14:_ZN5Exiv213copyXmpToIptcERKNS_7XmpDataERNS_8IptcDataE
libexiv2.so.14:_ZN5Exiv213moveExifToXmpERNS_8ExifDataERNS_7XmpDataE
libexiv2.so.14:_ZN5Exiv213moveIptcToXmpERNS_8IptcDataERNS_7XmpDataEPKc
libexiv2.so.14:_ZN5Exiv213moveXmpToExifERNS_7XmpDataERNS_8ExifDataE
libexiv2.so.14:_ZN5Exiv213moveXmpToIptcERNS_7XmpDataERNS_8IptcDataE
libexiv2.so.14:_ZN5Exiv213parseRationalERKNSt7__cxx1112basic_stringIcSt11char_traitsIcESaIcEEERb
libexiv2.so.14:_ZN5Exiv213pathOfFileUrlERKNSt7__cxx1112basic_stringIcSt11char_traitsIcESaIcEEE
libexiv2.so.14:_ZN5Exiv213versionNumberEv
libexiv2.so.14:_ZN5Exiv213versionStringB5cxx11Ev
libexiv2.so.14:_ZN5Exiv214PreviewManagerC1ERKNS_5ImageE
libexiv2.so.14:_ZN5Exiv214PreviewManagerC2ERKNS_5ImageE
libexiv2.so.14:_ZN5Exiv214isLittleEndianEv
libexiv2.so.14:_ZN5Exiv214newBmpInstanceESt8auto_ptrINS_7BasicIoEEb
libexiv2.so.14:_ZN5Exiv214newCr2InstanceESt8auto_ptrINS_7BasicIoEEb
libexiv2.so.14:_ZN5Exiv214newCrwInstanceESt8auto_ptrINS_7BasicIoEEb
libexiv2.so.14:_ZN5Exiv214newEpsInstanceESt8auto_ptrINS_7BasicIoEEb
libexiv2.so.14:_ZN5Exiv214newExvInstanceESt8auto_ptrINS_7BasicIoEEb
libexiv2.so.14:_ZN5Exiv214newGifInstanceESt8auto_ptrINS_7BasicIoEEb
libexiv2.so.14:_ZN5Exiv214newJp2InstanceESt8auto_ptrINS_7BasicIoEEb
libexiv2.so.14:_ZN5Exiv214newMrwInstanceESt8auto_ptrINS_7BasicIoEEb
libexiv2.so.14:_ZN5Exiv214newOrfInstanceESt8auto_ptrINS_7BasicIoEEb
libexiv2.so.14:_ZN5Exiv214newPgfInstanceESt8auto_ptrINS_7BasicIoEEb
libexiv2.so.14:_ZN5Exiv214newPngInstanceESt8auto_ptrINS_7BasicIoEEb
libexiv2.so.14:_ZN5Exiv214newPsdInstanceESt8auto_ptrINS_7BasicIoEEb
libexiv2.so.14:_ZN5Exiv214newRafInstanceESt8auto_ptrINS_7BasicIoEEb
libexiv2.so.14:_ZN5Exiv214newRw2InstanceESt8auto_ptrINS_7BasicIoEEb
libexiv2.so.14:_ZN5Exiv214newTgaInstanceESt8auto_ptrINS_7BasicIoEEb
libexiv2.so.14:_ZN5Exiv214newXmpInstanceESt8auto_ptrINS_7BasicIoEEb
libexiv2.so.14:_ZN5Exiv215StringValueBase4readEPKhlNS_9ByteOrderE
libexiv2.so.14:_ZN5Exiv215StringValueBase4readERKNSt7__cxx1112basic_stringIcSt11char_traitsIcESaIcEEE
libexiv2.so.14:_ZN5Exiv215StringValueBaseC1ENS_6TypeIdE
libexiv2.so.14:_ZN5Exiv215StringValueBaseC1ENS_6TypeIdERKNSt7__cxx1112basic_stringIcSt11char_traitsIcESaIcEEE
libexiv2.so.14:_ZN5Exiv215StringValueBaseC1ERKS0_
libexiv2.so.14:_ZN5Exiv215StringValueBaseC2ENS_6TypeIdE
libexiv2.so.14:_ZN5Exiv215StringValueBaseC2ENS_6TypeIdERKNSt7__cxx1112basic_stringIcSt11char_traitsIcESaIcEEE
libexiv2.so.14:_ZN5Exiv215StringValueBaseC2ERKS0_
libexiv2.so.14:_ZN5Exiv215StringValueBaseD0Ev
libexiv2.so.14:_ZN5Exiv215StringValueBaseD1Ev
libexiv2.so.14:_ZN5Exiv215StringValueBaseD2Ev
libexiv2.so.14:_ZN5Exiv215StringValueBaseaSERKS0_
libexiv2.so.14:_ZN5Exiv215dumpLibraryInfoERSoRKSt6vectorI17re_pattern_bufferSaIS2_EE
libexiv2.so.14:_ZN5Exiv215newJpegInstanceESt8auto_ptrINS_7BasicIoEEb
libexiv2.so.14:_ZN5Exiv215newTiffInstanceESt8auto_ptrINS_7BasicIoEEb
libexiv2.so.14:_ZN5Exiv215subjectDistanceERKNS_8ExifDataE
libexiv2.so.14:_ZN5Exiv215syncExifWithXmpERNS_8ExifDataERNS_7XmpDataE
libexiv2.so.14:_ZN5Exiv216cmpMetadataByKeyERKNS_9MetadatumES2_
libexiv2.so.14:_ZN5Exiv216cmpMetadataByTagERKNS_9MetadatumES2_
libexiv2.so.14:_ZN5Exiv216sceneCaptureTypeERKNS_8ExifDataE
libexiv2.so.14:_ZN5Exiv219cmpIptcdataByRecordERKNS_9IptcdatumES2_
libexiv2.so.14:_ZN5Exiv219floatToRationalCastEf
libexiv2.so.14:_ZN5Exiv220ReplaceStringInPlaceENSt7__cxx1112basic_stringIcSt11char_traitsIcESaIcEEERKS5_S7_
libexiv2.so.14:_ZN5Exiv220convertStringCharsetERNSt7__cxx1112basic_stringIcSt11char_traitsIcESaIcEEEPKcS8_
libexiv2.so.14:_ZN5Exiv222versionNumberHexStringB5cxx11Ev
libexiv2.so.14:_ZN5Exiv23KeyD0Ev
libexiv2.so.14:_ZN5Exiv23KeyD1Ev
libexiv2.so.14:_ZN5Exiv23KeyD2Ev
libexiv2.so.14:_ZN5Exiv23KeyaSERKS0_
libexiv2.so.14:_ZN5Exiv23Uri5ParseERKNSt7__cxx1112basic_stringIcSt11char_traitsIcESaIcEEE
libexiv2.so.14:_ZN5Exiv23Uri6DecodeERS0_
libexiv2.so.14:_ZN5Exiv24httpERSt3mapINSt7__cxx1112basic_stringIcSt11char_traitsIcESaIcEEES6_St4lessIS6_ESaISt4pairIKS6_S6_EEESE_RS6_
libexiv2.so.14:_ZN5Exiv24makeERKNS_8ExifDataE
libexiv2.so.14:_ZN5Exiv25Image10setCommentERKNSt7__cxx1112basic_stringIcSt11char_traitsIcESaIcEEE
libexiv2.so.14:_ZN5Exiv25Image10setXmpDataERKNS_7XmpDataE
libexiv2.so.14:_ZN5Exiv25Image11setExifDataERKNS_8ExifDataE
libexiv2.so.14:_ZN5Exiv25Image11setIptcDataERKNS_8IptcDataE
libexiv2.so.14:_ZN5Exiv25Image11setMetadataERKS0_
libexiv2.so.14:_ZN5Exiv25Image12clearCommentEv
libexiv2.so.14:_ZN5Exiv25Image12clearXmpDataEv
libexiv2.so.14:_ZN5Exiv25Image12setByteOrderENS_9ByteOrderE
libexiv2.so.14:_ZN5Exiv25Image12setXmpPacketERKNSt7__cxx1112basic_stringIcSt11char_traitsIcESaIcEEE
libexiv2.so.14:_ZN5Exiv25Image13clearExifDataEv
libexiv2.so.14:_ZN5Exiv25Image13clearIptcDataEv
libexiv2.so.14:_ZN5Exiv25Image13clearMetadataEv
libexiv2.so.14:_ZN5Exiv25Image14clearXmpPacketEv
libexiv2.so.14:_ZN5Exiv25Image14printStructureERSoNS_20PrintStructureOptionE
libexiv2.so.14:_ZN5Exiv25Image18writeXmpFromPacketEb
libexiv2.so.14:_ZN5Exiv25Image7xmpDataEv
libexiv2.so.14:_ZN5Exiv25Image8exifDataEv
libexiv2.so.14:_ZN5Exiv25Image8iptcDataEv
libexiv2.so.14:_ZN5Exiv25Image9xmpPacketB5cxx11Ev
libexiv2.so.14:_ZN5Exiv25ImageC1EitSt8auto_ptrINS_7BasicIoEE
libexiv2.so.14:_ZN5Exiv25ImageC2EitSt8auto_ptrINS_7BasicIoEE
libexiv2.so.14:_ZN5Exiv25ImageD0Ev
libexiv2.so.14:_ZN5Exiv25ImageD1Ev
libexiv2.so.14:_ZN5Exiv25ImageD2Ev
libexiv2.so.14:_ZN5Exiv25MemIo16populateFakeDataEv
libexiv2.so.14:_ZN5Exiv25MemIo4Impl7reserveEl
libexiv2.so.14:_ZN5Exiv25MemIo4ImplC1EPKhl
libexiv2.so.14:_ZN5Exiv25MemIo4ImplC1Ev
libexiv2.so.14:_ZN5Exiv25MemIo4ImplC2EPKhl
libexiv2.so.14:_ZN5Exiv25MemIo4ImplC2Ev
libexiv2.so.14:_ZN5Exiv25MemIo4getbEv
libexiv2.so.14:_ZN5Exiv25MemIo4mmapEb
libexiv2.so.14:_ZN5Exiv25MemIo4openEv
libexiv2.so.14:_ZN5Exiv25MemIo4putbEh
libexiv2.so.14:_ZN5Exiv25MemIo4readEPhl
libexiv2.so.14:_ZN5Exiv25MemIo4readEl
libexiv2.so.14:_ZN5Exiv25MemIo4seekElNS_7BasicIo8PositionE
libexiv2.so.14:_ZN5Exiv25MemIo5closeEv
libexiv2.so.14:_ZN5Exiv25MemIo5msyncEv
libexiv2.so.14:_ZN5Exiv25MemIo5writeEPKhl
libexiv2.so.14:_ZN5Exiv25MemIo5writeERNS_7BasicIoE
libexiv2.so.14:_ZN5Exiv25MemIo6munmapEv
libexiv2.so.14:_ZN5Exiv25MemIo8transferERNS_7BasicIoE
libexiv2.so.14:_ZN5Exiv25MemIoC1EPKhl
libexiv2.so.14:_ZN5Exiv25MemIoC1Ev
libexiv2.so.14:_ZN5Exiv25MemIoC2EPKhl
libexiv2.so.14:_ZN5Exiv25MemIoC2Ev
libexiv2.so.14:_ZN5Exiv25MemIoD0Ev
libexiv2.so.14:_ZN5Exiv25MemIoD1Ev
libexiv2.so.14:_ZN5Exiv25MemIoD2Ev
libexiv2.so.14:_ZN5Exiv25Value11setDataAreaEPKhl
libexiv2.so.14:_ZN5Exiv25Value6createENS_6TypeIdE
libexiv2.so.14:_ZN5Exiv25ValueC1ENS_6TypeIdE
libexiv2.so.14:_ZN5Exiv25ValueC2ENS_6TypeIdE
libexiv2.so.14:_ZN5Exiv25ValueD0Ev
libexiv2.so.14:_ZN5Exiv25ValueD1Ev
libexiv2.so.14:_ZN5Exiv25ValueD2Ev
libexiv2.so.14:_ZN5Exiv25ValueaSERKS0_
libexiv2.so.14:_ZN5Exiv25isHexERKNSt7__cxx1112basic_stringIcSt11char_traitsIcESaIcEEEmS7_
libexiv2.so.14:_ZN5Exiv25modelERKNS_8ExifDataE
libexiv2.so.14:_ZN5Exiv26FileIo16populateFakeDataEv
libexiv2.so.14:_ZN5Exiv26FileIo4Impl10switchModeENS1_6OpModeE
libexiv2.so.14:_ZN5Exiv26FileIo4Impl13copyXattrFromERKS0_
libexiv2.so.14:_ZN5Exiv26FileIo4ImplC1ERKNSt7__cxx1112basic_stringIcSt11char_traitsIcESaIcEEE
libexiv2.so.14:_ZN5Exiv26FileIo4ImplC2ERKNSt7__cxx1112basic_stringIcSt11char_traitsIcESaIcEEE
libexiv2.so.14:_ZN5Exiv26FileIo4getbEv
libexiv2.so.14:_ZN5Exiv26FileIo4mmapEb
libexiv2.so.14:_ZN5Exiv26FileIo4openERKNSt7__cxx1112basic_stringIcSt11char_traitsIcESaIcEEE
libexiv2.so.14:_ZN5Exiv26FileIo4openEv
libexiv2.so.14:_ZN5Exiv26FileIo4putbEh
libexiv2.so.14:_ZN5Exiv26FileIo4readEPhl
libexiv2.so.14:_ZN5Exiv26FileIo4readEl
libexiv2.so.14:_ZN5Exiv26FileIo4seekElNS_7BasicIo8PositionE
libexiv2.so.14:_ZN5Exiv26FileIo5closeEv
libexiv2.so.14:_ZN5Exiv26FileIo5writeEPKhl
libexiv2.so.14:_ZN5Exiv26FileIo5writeERNS_7BasicIoE
libexiv2.so.14:_ZN5Exiv26FileIo6munmapEv
libexiv2.so.14:_ZN5Exiv26FileIo7setPathERKNSt7__cxx1112basic_stringIcSt11char_traitsIcESaIcEEE
libexiv2.so.14:_ZN5Exiv26FileIo8transferERNS_7BasicIoE
libexiv2.so.14:_ZN5Exiv26FileIoC1ERKNSt7__cxx1112basic_stringIcSt11char_traitsIcESaIcEEE
libexiv2.so.14:_ZN5Exiv26FileIoC2ERKNSt7__cxx1112basic_stringIcSt11char_traitsIcESaIcEEE
libexiv2.so.14:_ZN5Exiv26FileIoD0Ev
libexiv2.so.14:_ZN5Exiv26FileIoD1Ev
libexiv2.so.14:_ZN5Exiv26FileIoD2Ev
libexiv2.so.14:_ZN5Exiv26HttpIo8HttpImpl11writeRemoteEPKhmll
libexiv2.so.14:_ZN5Exiv26HttpIo8HttpImpl13getFileLengthEv
libexiv2.so.14:_ZN5Exiv26HttpIo8HttpImpl14getDataByRangeEllRNSt7__cxx1112basic_stringIcSt11char_traitsIcESaIcEEE
libexiv2.so.14:_ZN5Exiv26HttpIo8HttpImplC1ERKNSt7__cxx1112basic_stringIcSt11char_traitsIcESaIcEEEm
libexiv2.so.14:_ZN5Exiv26HttpIo8HttpImplC2ERKNSt7__cxx1112basic_stringIcSt11char_traitsIcESaIcEEEm
libexiv2.so.14:_ZN5Exiv26HttpIoC1ERKNSt7__cxx1112basic_stringIcSt11char_traitsIcESaIcEEEm
libexiv2.so.14:_ZN5Exiv26HttpIoC2ERKNSt7__cxx1112basic_stringIcSt11char_traitsIcESaIcEEEm
libexiv2.so.14:_ZN5Exiv26LogMsg14defaultHandlerEiPKc
libexiv2.so.14:_ZN5Exiv26XmpKey4Impl12decomposeKeyERKNSt7__cxx1112basic_stringIcSt11char_traitsIcESaIcEEE
libexiv2.so.14:_ZN5Exiv26XmpKey4ImplC1ERKNSt7__cxx1112basic_stringIcSt11char_traitsIcESaIcEEES9_
libexiv2.so.14:_ZN5Exiv26XmpKey4ImplC2ERKNSt7__cxx1112basic_stringIcSt11char_traitsIcESaIcEEES9_
libexiv2.so.14:_ZN5Exiv26XmpKeyC1ERKNSt7__cxx1112basic_stringIcSt11char_traitsIcESaIcEEE
libexiv2.so.14:_ZN5Exiv26XmpKeyC1ERKNSt7__cxx1112basic_stringIcSt11char_traitsIcESaIcEEES8_
libexiv2.so.14:_ZN5Exiv26XmpKeyC1ERKS0_
libexiv2.so.14:_ZN5Exiv26XmpKeyC2ERKNSt7__cxx1112basic_stringIcSt11char_traitsIcESaIcEEE
libexiv2.so.14:_ZN5Exiv26XmpKeyC2ERKNSt7__cxx1112basic_stringIcSt11char_traitsIcESaIcEEES8_
libexiv2.so.14:_ZN5Exiv26XmpKeyC2ERKS0_
libexiv2.so.14:_ZN5Exiv26XmpKeyD0Ev
libexiv2.so.14:_ZN5Exiv26XmpKeyD1Ev
libexiv2.so.14:_ZN5Exiv26XmpKeyD2Ev
libexiv2.so.14:_ZN5Exiv26XmpKeyaSERKS0_
libexiv2.so.14:_ZN5Exiv26appendERSt6vectorIhSaIhEEPKhj
libexiv2.so.14:_ZN5Exiv26d2DataEPhdNS_9ByteOrderE
libexiv2.so.14:_ZN5Exiv26errMsgEi
libexiv2.so.14:_ZN5Exiv26f2DataEPhfNS_9ByteOrderE
libexiv2.so.14:_ZN5Exiv26getEnvB5cxx11ENS_5EnVarE
libexiv2.so.14:_ZN5Exiv26l2DataEPhiNS_9ByteOrderE
libexiv2.so.14:_ZN5Exiv26r2DataEPhSt4pairIiiENS_9ByteOrderE
libexiv2.so.14:_ZN5Exiv26s2DataEPhsNS_9ByteOrderE
libexiv2.so.14:_ZN5Exiv26to_hexEc
libexiv2.so.14:_ZN5Exiv27BasicIoD0Ev
libexiv2.so.14:_ZN5Exiv27BasicIoD1Ev
libexiv2.so.14:_ZN5Exiv27BasicIoD2Ev
libexiv2.so.14:_ZN5Exiv27DataBuf5allocEl
libexiv2.so.14:_ZN5Exiv27DataBuf5resetESt4pairIPhlE
libexiv2.so.14:_ZN5Exiv27DataBuf7releaseEv
libexiv2.so.14:_ZN5Exiv27DataBufC1EPKhl
libexiv2.so.14:_ZN5Exiv27DataBufC1ERS0_
libexiv2.so.14:_ZN5Exiv27DataBufC2EPKhl
libexiv2.so.14:_ZN5Exiv27DataBufC2ERS0_
libexiv2.so.14:_ZN5Exiv27DataBufaSERS0_
libexiv2.so.14:_ZN5Exiv27DataSetC1EtPKcS2_S2_bbjjNS_6TypeIdEtS2_
libexiv2.so.14:_ZN5Exiv27DataSetC2EtPKcS2_S2_bbjjNS_6TypeIdEtS2_
libexiv2.so.14:_ZN5Exiv27ExifKey4Impl12decomposeKeyERKNSt7__cxx1112basic_stringIcSt11char_traitsIcESaIcEEE
libexiv2.so.14:_ZN5Exiv27ExifKey4Impl7makeKeyEtNS_8Internal5IfdIdEPKNS_7TagInfoE
libexiv2.so.14:_ZN5Exiv27ExifKey4ImplC1Ev
libexiv2.so.14:_ZN5Exiv27ExifKey4ImplC2Ev
libexiv2.so.14:_ZN5Exiv27ExifKey6setIdxEi
libexiv2.so.14:_ZN5Exiv27ExifKeyC1ERKNS_7TagInfoE
libexiv2.so.14:_ZN5Exiv27ExifKeyC1ERKNSt7__cxx1112basic_stringIcSt11char_traitsIcESaIcEEE
libexiv2.so.14:_ZN5Exiv27ExifKeyC1ERKS0_
libexiv2.so.14:_ZN5Exiv27ExifKeyC1EtRKNSt7__cxx1112basic_stringIcSt11char_traitsIcESaIcEEE
libexiv2.so.14:_ZN5Exiv27ExifKeyC2ERKNS_7TagInfoE
libexiv2.so.14:_ZN5Exiv27ExifKeyC2ERKNSt7__cxx1112basic_stringIcSt11char_traitsIcESaIcEEE
libexiv2.so.14:_ZN5Exiv27ExifKeyC2ERKS0_
libexiv2.so.14:_ZN5Exiv27ExifKeyC2EtRKNSt7__cxx1112basic_stringIcSt11char_traitsIcESaIcEEE
libexiv2.so.14:_ZN5Exiv27ExifKeyD0Ev
libexiv2.so.14:_ZN5Exiv27ExifKeyD1Ev
libexiv2.so.14:_ZN5Exiv27ExifKeyD2Ev
libexiv2.so.14:_ZN5Exiv27ExifKeyaSERKS0_
libexiv2.so.14:_ZN5Exiv27IptcKey12decomposeKeyEv
libexiv2.so.14:_ZN5Exiv27IptcKey7makeKeyEv
libexiv2.so.14:_ZN5Exiv27IptcKeyC1ERKNSt7__cxx1112basic_stringIcSt11char_traitsIcESaIcEEE
libexiv2.so.14:_ZN5Exiv27IptcKeyC1ERKS0_
libexiv2.so.14:_ZN5Exiv27IptcKeyC1Ett
libexiv2.so.14:_ZN5Exiv27IptcKeyC2ERKNSt7__cxx1112basic_stringIcSt11char_traitsIcESaIcEEE
libexiv2.so.14:_ZN5Exiv27IptcKeyC2ERKS0_
libexiv2.so.14:_ZN5Exiv27IptcKeyC2Ett
libexiv2.so.14:_ZN5Exiv27IptcKeyD0Ev
libexiv2.so.14:_ZN5Exiv27IptcKeyD1Ev
libexiv2.so.14:_ZN5Exiv27IptcKeyD2Ev
libexiv2.so.14:_ZN5Exiv27IptcKeyaSERKS0_
libexiv2.so.14:_ZN5Exiv27TagInfoC1EtPKcS2_S2_iiNS_6TypeIdEsPFRSoS4_RKNS_5ValueEPKNS_8ExifDataEE
libexiv2.so.14:_ZN5Exiv27TagInfoC2EtPKcS2_S2_iiNS_6TypeIdEsPFRSoS4_RKNS_5ValueEPKNS_8ExifDataEE
libexiv2.so.14:_ZN5Exiv27XPathIo15writeDataToFileERKNSt7__cxx1112basic_stringIcSt11char_traitsIcESaIcEEE
libexiv2.so.14:_ZN5Exiv27XPathIo8transferERNS_7BasicIoE
libexiv2.so.14:_ZN5Exiv27XPathIoC1ERKNSt7__cxx1112basic_stringIcSt11char_traitsIcESaIcEEE
libexiv2.so.14:_ZN5Exiv27XPathIoC2ERKNSt7__cxx1112basic_stringIcSt11char_traitsIcESaIcEEE
libexiv2.so.14:_ZN5Exiv27XPathIoD0Ev
libexiv2.so.14:_ZN5Exiv27XPathIoD1Ev
libexiv2.so.14:_ZN5Exiv27XPathIoD2Ev
libexiv2.so.14:_ZN5Exiv27XmpData3addERKNS_6XmpKeyEPKNS_5ValueE
libexiv2.so.14:_ZN5Exiv27XmpData3addERKNS_8XmpdatumE
libexiv2.so.14:_ZN5Exiv27XmpData3endEv
libexiv2.so.14:_ZN5Exiv27XmpData5beginEv
libexiv2.so.14:_ZN5Exiv27XmpData5clearEv
libexiv2.so.14:_ZN5Exiv27XmpData5eraseEN9__gnu_cxx17__normal_iteratorIPNS_8XmpdatumESt6vectorIS3_SaIS3_EEEE
libexiv2.so.14:_ZN5Exiv27XmpData7findKeyERKNS_6XmpKeyE
libexiv2.so.14:_ZN5Exiv27XmpData9sortByKeyEv
libexiv2.so.14:_ZN5Exiv27XmpDataixERKNSt7__cxx1112basic_stringIcSt11char_traitsIcESaIcEEE
libexiv2.so.14:_ZN5Exiv27afPointERKNS_8ExifDataE
libexiv2.so.14:_ZN5Exiv27fNumberERKNS_8ExifDataE
libexiv2.so.14:_ZN5Exiv27getLongEPKhNS_9ByteOrderE
libexiv2.so.14:_ZN5Exiv27hexdumpERSoPKhll
libexiv2.so.14:_ZN5Exiv27isBlankERNSt7__cxx1112basic_stringIcSt11char_traitsIcESaIcEEE
libexiv2.so.14:_ZN5Exiv27ul2DataEPhjNS_9ByteOrderE
libexiv2.so.14:_ZN5Exiv27ur2DataEPhSt4pairIjjENS_9ByteOrderE
libexiv2.so.14:_ZN5Exiv27us2DataEPhtNS_9ByteOrderE
libexiv2.so.14:_ZN5Exiv27versionEv
libexiv2.so.14:_ZN5Exiv28AnyErrorD0Ev
libexiv2.so.14:_ZN5Exiv28AnyErrorD1Ev
libexiv2.so.14:_ZN5Exiv28AnyErrorD2Ev
libexiv2.so.14:_ZN5Exiv28BmpImage10setCommentERKNSt7__cxx1112basic_stringIcSt11char_traitsIcESaIcEEE
libexiv2.so.14:_ZN5Exiv28BmpImage11setExifDataERKNS_8ExifDataE
libexiv2.so.14:_ZN5Exiv28BmpImage11setIptcDataERKNS_8IptcDataE
libexiv2.so.14:_ZN5Exiv28BmpImage12readMetadataEv
libexiv2.so.14:_ZN5Exiv28BmpImage13writeMetadataEv
libexiv2.so.14:_ZN5Exiv28BmpImageC1ESt8auto_ptrINS_7BasicIoEE
libexiv2.so.14:_ZN5Exiv28BmpImageC2ESt8auto_ptrINS_7BasicIoEE
libexiv2.so.14:_ZN5Exiv28Cr2Image10setCommentERKNSt7__cxx1112basic_stringIcSt11char_traitsIcESaIcEEE
libexiv2.so.14:_ZN5Exiv28Cr2Image12readMetadataEv
libexiv2.so.14:_ZN5Exiv28Cr2Image13writeMetadataEv
libexiv2.so.14:_ZN5Exiv28Cr2ImageC1ESt8auto_ptrINS_7BasicIoEEb
libexiv2.so.14:_ZN5Exiv28Cr2ImageC2ESt8auto_ptrINS_7BasicIoEEb
libexiv2.so.14:_ZN5Exiv28CrwImage11setIptcDataERKNS_8IptcDataE
libexiv2.so.14:_ZN5Exiv28CrwImage12readMetadataEv
libexiv2.so.14:_ZN5Exiv28CrwImage13writeMetadataEv
libexiv2.so.14:_ZN5Exiv28CrwImageC1ESt8auto_ptrINS_7BasicIoEEb
libexiv2.so.14:_ZN5Exiv28CrwImageC2ESt8auto_ptrINS_7BasicIoEEb
libexiv2.so.14:_ZN5Exiv28EpsImage10setCommentERKNSt7__cxx1112basic_stringIcSt11char_traitsIcESaIcEEE
libexiv2.so.14:_ZN5Exiv28EpsImage12readMetadataEv
libexiv2.so.14:_ZN5Exiv28EpsImage13writeMetadataEv
libexiv2.so.14:_ZN5Exiv28EpsImageC1ESt8auto_ptrINS_7BasicIoEEb
libexiv2.so.14:_ZN5Exiv28EpsImageC2ESt8auto_ptrINS_7BasicIoEEb
libexiv2.so.14:_ZN5Exiv28ExifData3addERKNS_7ExifKeyEPKNS_5ValueE
libexiv2.so.14:_ZN5Exiv28ExifData3addERKNS_9ExifdatumE
libexiv2.so.14:_ZN5Exiv28ExifData5clearEv
libexiv2.so.14:_ZN5Exiv28ExifData5eraseESt14_List_iteratorINS_9ExifdatumEE
libexiv2.so.14:_ZN5Exiv28ExifData5eraseESt14_List_iteratorINS_9ExifdatumEES3_
libexiv2.so.14:_ZN5Exiv28ExifData7findKeyERKNS_7ExifKeyE
libexiv2.so.14:_ZN5Exiv28ExifData9sortByKeyEv
libexiv2.so.14:_ZN5Exiv28ExifData9sortByTagEv
libexiv2.so.14:_ZN5Exiv28ExifDataixERKNSt7__cxx1112basic_stringIcSt11char_traitsIcESaIcEEE
libexiv2.so.14:_ZN5Exiv28ExifTags11isExifGroupERKNSt7__cxx1112basic_stringIcSt11char_traitsIcESaIcEEE
libexiv2.so.14:_ZN5Exiv28ExifTags11sectionNameERKNS_7ExifKeyE
libexiv2.so.14:_ZN5Exiv28ExifTags12defaultCountERKNS_7ExifKeyE
libexiv2.so.14:_ZN5Exiv28ExifTags12isMakerGroupERKNSt7__cxx1112basic_stringIcSt11char_traitsIcESaIcEEE
libexiv2.so.14:_ZN5Exiv28ExifTags7ifdNameERKNSt7__cxx1112basic_stringIcSt11char_traitsIcESaIcEEE
libexiv2.so.14:_ZN5Exiv28ExifTags7tagListERKNSt7__cxx1112basic_stringIcSt11char_traitsIcESaIcEEE
libexiv2.so.14:_ZN5Exiv28ExifTags7taglistERSo
libexiv2.so.14:_ZN5Exiv28ExifTags7taglistERSoRKNSt7__cxx1112basic_stringIcSt11char_traitsIcESaIcEEE
libexiv2.so.14:_ZN5Exiv28ExifTags9groupListEv
libexiv2.so.14:_ZN5Exiv28ExvImageC1ESt8auto_ptrINS_7BasicIoEEb
libexiv2.so.14:_ZN5Exiv28ExvImageC2ESt8auto_ptrINS_7BasicIoEEb
libexiv2.so.14:_ZN5Exiv28GifImage10setCommentERKNSt7__cxx1112basic_stringIcSt11char_traitsIcESaIcEEE
libexiv2.so.14:_ZN5Exiv28GifImage11setExifDataERKNS_8ExifDataE
libexiv2.so.14:_ZN5Exiv28GifImage11setIptcDataERKNS_8IptcDataE
libexiv2.so.14:_ZN5Exiv28GifImage12readMetadataEv
libexiv2.so.14:_ZN5Exiv28GifImage13writeMetadataEv
libexiv2.so.14:_ZN5Exiv28GifImageC1ESt8auto_ptrINS_7BasicIoEE
libexiv2.so.14:_ZN5Exiv28GifImageC2ESt8auto_ptrINS_7BasicIoEE
libexiv2.so.14:_ZN5Exiv28Internal10CiffHeader3addEttNS_7DataBufE
libexiv2.so.14:_ZN5Exiv28Internal10CiffHeader4readEPKhj
libexiv2.so.14:_ZN5Exiv28Internal10CiffHeader6removeEtt
libexiv2.so.14:_ZN5Exiv28Internal10CiffHeaderD0Ev
libexiv2.so.14:_ZN5Exiv28Internal10CiffHeaderD1Ev
libexiv2.so.14:_ZN5Exiv28Internal10CiffHeaderD2Ev
libexiv2.so.14:_ZN5Exiv28Internal10TiffCopier10copyObjectEPNS0_13TiffComponentE
libexiv2.so.14:_ZN5Exiv28Internal10TiffCopier10visitEntryEPNS0_9TiffEntryE
libexiv2.so.14:_ZN5Exiv28Internal10TiffCopier11visitSubIfdEPNS0_10TiffSubIfdE
libexiv2.so.14:_ZN5Exiv28Internal10TiffCopier12visitMnEntryEPNS0_11TiffMnEntryE
libexiv2.so.14:_ZN5Exiv28Internal10TiffCopier14visitDataEntryEPNS0_13TiffDataEntryE
libexiv2.so.14:_ZN5Exiv28Internal10TiffCopier14visitDirectoryEPNS0_13TiffDirectoryE
libexiv2.so.14:_ZN5Exiv28Internal10TiffCopier14visitSizeEntryEPNS0_13TiffSizeEntryE
libexiv2.so.14:_ZN5Exiv28Internal10TiffCopier15visitImageEntryEPNS0_14TiffImageEntryE
libexiv2.so.14:_ZN5Exiv28Internal10TiffCopier16visitBinaryArrayEPNS0_15TiffBinaryArrayE
libexiv2.so.14:_ZN5Exiv28Internal10TiffCopier17visitIfdMakernoteEPNS0_16TiffIfdMakernoteE
libexiv2.so.14:_ZN5Exiv28Internal10TiffCopier18visitBinaryElementEPNS0_17TiffBinaryElementE
libexiv2.so.14:_ZN5Exiv28Internal10TiffCopierC1EPNS0_13TiffComponentEjPKNS0_14TiffHeaderBaseEPKSt6vectorINS0_5IfdIdESaIS8_EE
libexiv2.so.14:_ZN5Exiv28Internal10TiffCopierC2EPNS0_13TiffComponentEjPKNS0_14TiffHeaderBaseEPKSt6vectorINS0_5IfdIdESaIS8_EE
libexiv2.so.14:_ZN5Exiv28Internal10TiffCopierD0Ev
libexiv2.so.14:_ZN5Exiv28Internal10TiffCopierD1Ev
libexiv2.so.14:_ZN5Exiv28Internal10TiffCopierD2Ev
libexiv2.so.14:_ZN5Exiv28Internal10TiffFinder10findObjectEPNS0_13TiffComponentE
libexiv2.so.14:_ZN5Exiv28Internal10TiffFinder10visitEntryEPNS0_9TiffEntryE
libexiv2.so.14:_ZN5Exiv28Internal10TiffFinder11visitSubIfdEPNS0_10TiffSubIfdE
libexiv2.so.14:_ZN5Exiv28Internal10TiffFinder12visitMnEntryEPNS0_11TiffMnEntryE
libexiv2.so.14:_ZN5Exiv28Internal10TiffFinder14visitDataEntryEPNS0_13TiffDataEntryE
libexiv2.so.14:_ZN5Exiv28Internal10TiffFinder14visitDirectoryEPNS0_13TiffDirectoryE
libexiv2.so.14:_ZN5Exiv28Internal10TiffFinder14visitSizeEntryEPNS0_13TiffSizeEntryE
libexiv2.so.14:_ZN5Exiv28Internal10TiffFinder15visitImageEntryEPNS0_14TiffImageEntryE
libexiv2.so.14:_ZN5Exiv28Internal10TiffFinder16visitBinaryArrayEPNS0_15TiffBinaryArrayE
libexiv2.so.14:_ZN5Exiv28Internal10TiffFinder17visitIfdMakernoteEPNS0_16TiffIfdMakernoteE
libexiv2.so.14:_ZN5Exiv28Internal10TiffFinder18visitBinaryElementEPNS0_17TiffBinaryElementE
libexiv2.so.14:_ZN5Exiv28Internal10TiffFinder4initEtNS0_5IfdIdE
libexiv2.so.14:_ZN5Exiv28Internal10TiffFinderD0Ev
libexiv2.so.14:_ZN5Exiv28Internal10TiffFinderD1Ev
libexiv2.so.14:_ZN5Exiv28Internal10TiffFinderD2Ev
libexiv2.so.14:_ZN5Exiv28Internal10TiffHeaderC1ENS_9ByteOrderEjb
libexiv2.so.14:_ZN5Exiv28Internal10TiffHeaderC2ENS_9ByteOrderEjb
libexiv2.so.14:_ZN5Exiv28Internal10TiffHeaderD0Ev
libexiv2.so.14:_ZN5Exiv28Internal10TiffHeaderD1Ev
libexiv2.so.14:_ZN5Exiv28Internal10TiffHeaderD2Ev
libexiv2.so.14:_ZN5Exiv28Internal10TiffReader10setMnStateEPKNS0_11TiffRwStateE
libexiv2.so.14:_ZN5Exiv28Internal10TiffReader10visitEntryEPNS0_9TiffEntryE
libexiv2.so.14:_ZN5Exiv28Internal10TiffReader11postProcessEv
libexiv2.so.14:_ZN5Exiv28Internal10TiffReader11visitSubIfdEPNS0_10TiffSubIfdE
libexiv2.so.14:_ZN5Exiv28Internal10TiffReader12setOrigStateEv
libexiv2.so.14:_ZN5Exiv28Internal10TiffReader12visitMnEntryEPNS0_11TiffMnEntryE
libexiv2.so.14:_ZN5Exiv28Internal10TiffReader13readTiffEntryEPNS0_13TiffEntryBaseE
libexiv2.so.14:_ZN5Exiv28Internal10TiffReader14visitDataEntryEPNS0_13TiffDataEntryE
libexiv2.so.14:_ZN5Exiv28Internal10TiffReader14visitDirectoryEPNS0_13TiffDirectoryE
libexiv2.so.14:_ZN5Exiv28Internal10TiffReader14visitSizeEntryEPNS0_13TiffSizeEntryE
libexiv2.so.14:_ZN5Exiv28Internal10TiffReader15visitImageEntryEPNS0_14TiffImageEntryE
libexiv2.so.14:_ZN5Exiv28Internal10TiffReader16visitBinaryArrayEPNS0_15TiffBinaryArrayE
libexiv2.so.14:_ZN5Exiv28Internal10TiffReader17circularReferenceEPKhNS0_5IfdIdE
libexiv2.so.14:_ZN5Exiv28Internal10TiffReader17readDataEntryBaseEPNS0_17TiffDataEntryBaseE
libexiv2.so.14:_ZN5Exiv28Internal10TiffReader17visitIfdMakernoteEPNS0_16TiffIfdMakernoteE
libexiv2.so.14:_ZN5Exiv28Internal10TiffReader18visitBinaryElementEPNS0_17TiffBinaryElementE
libexiv2.so.14:_ZN5Exiv28Internal10TiffReader20visitIfdMakernoteEndEPNS0_16TiffIfdMakernoteE
libexiv2.so.14:_ZN5Exiv28Internal10TiffReader7nextIdxENS0_5IfdIdE
libexiv2.so.14:_ZN5Exiv28Internal10TiffReaderC1EPKhjPNS0_13TiffComponentENS0_11TiffRwStateE
libexiv2.so.14:_ZN5Exiv28Internal10TiffReaderC2EPKhjPNS0_13TiffComponentENS0_11TiffRwStateE
libexiv2.so.14:_ZN5Exiv28Internal10TiffReaderD0Ev
libexiv2.so.14:_ZN5Exiv28Internal10TiffReaderD1Ev
libexiv2.so.14:_ZN5Exiv28Internal10TiffReaderD2Ev
libexiv2.so.14:_ZN5Exiv28Internal10TiffSubIfd10doAddChildESt8auto_ptrINS0_13TiffComponentEE
libexiv2.so.14:_ZN5Exiv28Internal10TiffSubIfd7doWriteERNS0_9IoWrapperENS_9ByteOrderEijjRj
libexiv2.so.14:_ZN5Exiv28Internal10TiffSubIfd8doAcceptERNS0_11TiffVisitorE
libexiv2.so.14:_ZN5Exiv28Internal10TiffSubIfd8doEncodeERNS0_11TiffEncoderEPKNS_9ExifdatumE
libexiv2.so.14:_ZN5Exiv28Internal10TiffSubIfd9doAddPathEtRSt5stackINS0_12TiffPathItemESt5dequeIS3_SaIS3_EEEPNS0_13TiffComponentESt8auto_ptrIS9_E
libexiv2.so.14:_ZN5Exiv28Internal10TiffSubIfdC1ERKS1_
libexiv2.so.14:_ZN5Exiv28Internal10TiffSubIfdC1EtNS0_5IfdIdES2_
libexiv2.so.14:_ZN5Exiv28Internal10TiffSubIfdC2ERKS1_
libexiv2.so.14:_ZN5Exiv28Internal10TiffSubIfdC2EtNS0_5IfdIdES2_
libexiv2.so.14:_ZN5Exiv28Internal10TiffSubIfdD0Ev
libexiv2.so.14:_ZN5Exiv28Internal10TiffSubIfdD1Ev
libexiv2.so.14:_ZN5Exiv28Internal10TiffSubIfdD2Ev
libexiv2.so.14:_ZN5Exiv28Internal10cmpGroupLtEPKNS0_13TiffComponentES3_
libexiv2.so.14:_ZN5Exiv28Internal10gpsTagListEv
libexiv2.so.14:_ZN5Exiv28Internal10ifdTagListEv
libexiv2.so.14:_ZN5Exiv28Internal10iopTagListEv
libexiv2.so.14:_ZN5Exiv28Internal10isMakerIfdENS0_5IfdIdE
libexiv2.so.14:_ZN5Exiv28Internal10newCasioMnEtNS0_5IfdIdES1_PKhjNS_9ByteOrderE
libexiv2.so.14:_ZN5Exiv28Internal10newFujiMn2EtNS0_5IfdIdES1_
libexiv2.so.14:_ZN5Exiv28Internal10newNikonMnEtNS0_5IfdIdES1_PKhjNS_9ByteOrderE
libexiv2.so.14:_ZN5Exiv28Internal10newSigmaMnEtNS0_5IfdIdES1_PKhjNS_9ByteOrderE
libexiv2.so.14:_ZN5Exiv28Internal10nikonCryptEtPKhjPNS0_13TiffComponentE
libexiv2.so.14:_ZN5Exiv28Internal10printFloatERSoRKNS_5ValueEPKNS_8ExifDataE
libexiv2.so.14:_ZN5Exiv28Internal10printValueERSoRKNS_5ValueEPKNS_8ExifDataE
libexiv2.so.14:_ZN5Exiv28Internal10toTiffTypeENS_6TypeIdE
libexiv2.so.14:_ZN5Exiv28Internal11TiffCreator6createEjNS0_5IfdIdE
libexiv2.so.14:_ZN5Exiv28Internal11TiffCreator7getPathERSt5stackINS0_12TiffPathItemESt5dequeIS3_SaIS3_EEEjNS0_5IfdIdEj
libexiv2.so.14:_ZN5Exiv28Internal11TiffDecoder10decodeIptcEPKNS0_13TiffEntryBaseE
libexiv2.so.14:_ZN5Exiv28Internal11TiffDecoder10getObjDataERPKhRltNS0_5IfdIdEPKNS0_13TiffEntryBaseE
libexiv2.so.14:_ZN5Exiv28Internal11TiffDecoder10visitEntryEPNS0_9TiffEntryE
libexiv2.so.14:_ZN5Exiv28Internal11TiffDecoder11visitSubIfdEPNS0_10TiffSubIfdE
libexiv2.so.14:_ZN5Exiv28Internal11TiffDecoder12visitMnEntryEPNS0_11TiffMnEntryE
libexiv2.so.14:_ZN5Exiv28Internal11TiffDecoder14visitDataEntryEPNS0_13TiffDataEntryE
libexiv2.so.14:_ZN5Exiv28Internal11TiffDecoder14visitDirectoryEPNS0_13TiffDirectoryE
libexiv2.so.14:_ZN5Exiv28Internal11TiffDecoder14visitSizeEntryEPNS0_13TiffSizeEntryE
libexiv2.so.14:_ZN5Exiv28Internal11TiffDecoder15decodeTiffEntryEPKNS0_13TiffEntryBaseE
libexiv2.so.14:_ZN5Exiv28Internal11TiffDecoder15visitImageEntryEPNS0_14TiffImageEntryE
libexiv2.so.14:_ZN5Exiv28Internal11TiffDecoder16visitBinaryArrayEPNS0_15TiffBinaryArrayE
libexiv2.so.14:_ZN5Exiv28Internal11TiffDecoder17visitIfdMakernoteEPNS0_16TiffIfdMakernoteE
libexiv2.so.14:_ZN5Exiv28Internal11TiffDecoder18decodeStdTiffEntryEPKNS0_13TiffEntryBaseE
libexiv2.so.14:_ZN5Exiv28Internal11TiffDecoder18visitBinaryElementEPNS0_17TiffBinaryElementE
libexiv2.so.14:_ZN5Exiv28Internal11TiffDecoder9decodeXmpEPKNS0_13TiffEntryBaseE
libexiv2.so.14:_ZN5Exiv28Internal11TiffDecoderC1ERNS_8ExifDataERNS_8IptcDataERNS_7XmpDataEPNS0_13TiffComponentEPFMS1_FvPKNS0_13TiffEntryBaseEERKNSt7__cxx1112basic_stringIcSt11char_traitsIcESaIcEEEjNS0_5IfdIdEE
libexiv2.so.14:_ZN5Exiv28Internal11TiffDecoderC2ERNS_8ExifDataERNS_8IptcDataERNS_7XmpDataEPNS0_13TiffComponentEPFMS1_FvPKNS0_13TiffEntryBaseEERKNSt7__cxx1112basic_stringIcSt11char_traitsIcESaIcEEEjNS0_5IfdIdEE
libexiv2.so.14:_ZN5Exiv28Internal11TiffDecoderD0Ev
libexiv2.so.14:_ZN5Exiv28Internal11TiffDecoderD1Ev
libexiv2.so.14:_ZN5Exiv28Internal11TiffDecoderD2Ev
libexiv2.so.14:_ZN5Exiv28Internal11TiffEncoder10encodeIptcEv
libexiv2.so.14:_ZN5Exiv28Internal11TiffEncoder10visitEntryEPNS0_9TiffEntryE
libexiv2.so.14:_ZN5Exiv28Internal11TiffEncoder11visitSubIfdEPNS0_10TiffSubIfdE
libexiv2.so.14:_ZN5Exiv28Internal11TiffEncoder12encodeSubIfdEPNS0_10TiffSubIfdEPKNS_9ExifdatumE
libexiv2.so.14:_ZN5Exiv28Internal11TiffEncoder12visitMnEntryEPNS0_11TiffMnEntryE
libexiv2.so.14:_ZN5Exiv28Internal11TiffEncoder13encodeMnEntryEPNS0_11TiffMnEntryEPKNS_9ExifdatumE
libexiv2.so.14:_ZN5Exiv28Internal11TiffEncoder14visitDataEntryEPNS0_13TiffDataEntryE
libexiv2.so.14:_ZN5Exiv28Internal11TiffEncoder14visitDirectoryEPNS0_13TiffDirectoryE
libexiv2.so.14:_ZN5Exiv28Internal11TiffEncoder14visitSizeEntryEPNS0_13TiffSizeEntryE
libexiv2.so.14:_ZN5Exiv28Internal11TiffEncoder15encodeDataEntryEPNS0_13TiffDataEntryEPKNS_9ExifdatumE
libexiv2.so.14:_ZN5Exiv28Internal11TiffEncoder15encodeSizeEntryEPNS0_13TiffSizeEntryEPKNS_9ExifdatumE
libexiv2.so.14:_ZN5Exiv28Internal11TiffEncoder15encodeTiffEntryEPNS0_9TiffEntryEPKNS_9ExifdatumE
libexiv2.so.14:_ZN5Exiv28Internal11TiffEncoder15visitImageEntryEPNS0_14TiffImageEntryE
libexiv2.so.14:_ZN5Exiv28Internal11TiffEncoder16encodeImageEntryEPNS0_14TiffImageEntryEPKNS_9ExifdatumE
libexiv2.so.14:_ZN5Exiv28Internal11TiffEncoder16visitBinaryArrayEPNS0_15TiffBinaryArrayE
libexiv2.so.14:_ZN5Exiv28Internal11TiffEncoder17encodeBinaryArrayEPNS0_15TiffBinaryArrayEPKNS_9ExifdatumE
libexiv2.so.14:_ZN5Exiv28Internal11TiffEncoder17encodeOffsetEntryEPNS0_13TiffEntryBaseEPKNS_9ExifdatumE
libexiv2.so.14:_ZN5Exiv28Internal11TiffEncoder17visitIfdMakernoteEPNS0_16TiffIfdMakernoteE
libexiv2.so.14:_ZN5Exiv28Internal11TiffEncoder18visitBinaryElementEPNS0_17TiffBinaryElementE
libexiv2.so.14:_ZN5Exiv28Internal11TiffEncoder18visitDirectoryNextEPNS0_13TiffDirectoryE
libexiv2.so.14:_ZN5Exiv28Internal11TiffEncoder19encodeBinaryElementEPNS0_17TiffBinaryElementEPKNS_9ExifdatumE
libexiv2.so.14:_ZN5Exiv28Internal11TiffEncoder19encodeTiffComponentEPNS0_13TiffEntryBaseEPKNS_9ExifdatumE
libexiv2.so.14:_ZN5Exiv28Internal11TiffEncoder19encodeTiffEntryBaseEPNS0_13TiffEntryBaseEPKNS_9ExifdatumE
libexiv2.so.14:_ZN5Exiv28Internal11TiffEncoder19visitBinaryArrayEndEPNS0_15TiffBinaryArrayE
libexiv2.so.14:_ZN5Exiv28Internal11TiffEncoder20visitIfdMakernoteEndEPNS0_16TiffIfdMakernoteE
libexiv2.so.14:_ZN5Exiv28Internal11TiffEncoder3addEPNS0_13TiffComponentES3_j
libexiv2.so.14:_ZN5Exiv28Internal11TiffEncoder8setDirtyEb
libexiv2.so.14:_ZN5Exiv28Internal11TiffEncoder9encodeXmpEv
libexiv2.so.14:_ZN5Exiv28Internal11TiffEncoderC1ERKNS_8ExifDataERKNS_8IptcDataERKNS_7XmpDataEPNS0_13TiffComponentEbPKSt6vectorINS0_5IfdIdESaISE_EEPKNS0_14TiffHeaderBaseEPFMS1_FvPNS0_13TiffEntryBaseEPKNS_9ExifdatumEERKNSt7__cxx1112basic_stringIcSt11char_traitsIcESaIcEEEjSE_E
libexiv2.so.14:_ZN5Exiv28Internal11TiffEncoderC2ERKNS_8ExifDataERKNS_8IptcDataERKNS_7XmpDataEPNS0_13TiffComponentEbPKSt6vectorINS0_5IfdIdESaISE_EEPKNS0_14TiffHeaderBaseEPFMS1_FvPNS0_13TiffEntryBaseEPKNS_9ExifdatumEERKNSt7__cxx1112basic_stringIcSt11char_traitsIcESaIcEEEjSE_E
libexiv2.so.14:_ZN5Exiv28Internal11TiffEncoderD0Ev
libexiv2.so.14:_ZN5Exiv28Internal11TiffEncoderD1Ev
libexiv2.so.14:_ZN5Exiv28Internal11TiffEncoderD2Ev
libexiv2.so.14:_ZN5Exiv28Internal11TiffMapping11findDecoderERKNSt7__cxx1112basic_stringIcSt11char_traitsIcESaIcEEEjNS0_5IfdIdE
libexiv2.so.14:_ZN5Exiv28Internal11TiffMapping11findEncoderERKNSt7__cxx1112basic_stringIcSt11char_traitsIcESaIcEEEjNS0_5IfdIdE
libexiv2.so.14:_ZN5Exiv28Internal11TiffMnEntry10doAddChildESt8auto_ptrINS0_13TiffComponentEE
libexiv2.so.14:_ZN5Exiv28Internal11TiffMnEntry7doWriteERNS0_9IoWrapperENS_9ByteOrderEijjRj
libexiv2.so.14:_ZN5Exiv28Internal11TiffMnEntry8doAcceptERNS0_11TiffVisitorE
libexiv2.so.14:_ZN5Exiv28Internal11TiffMnEntry8doEncodeERNS0_11TiffEncoderEPKNS_9ExifdatumE
libexiv2.so.14:_ZN5Exiv28Internal11TiffMnEntry9doAddNextESt8auto_ptrINS0_13TiffComponentEE
libexiv2.so.14:_ZN5Exiv28Internal11TiffMnEntry9doAddPathEtRSt5stackINS0_12TiffPathItemESt5dequeIS3_SaIS3_EEEPNS0_13TiffComponentESt8auto_ptrIS9_E
libexiv2.so.14:_ZN5Exiv28Internal11TiffMnEntryC1EtNS0_5IfdIdES2_
libexiv2.so.14:_ZN5Exiv28Internal11TiffMnEntryC2EtNS0_5IfdIdES2_
libexiv2.so.14:_ZN5Exiv28Internal11TiffMnEntryD0Ev
libexiv2.so.14:_ZN5Exiv28Internal11TiffMnEntryD1Ev
libexiv2.so.14:_ZN5Exiv28Internal11TiffMnEntryD2Ev
libexiv2.so.14:_ZN5Exiv28Internal11TiffVisitor17visitDirectoryEndEPNS0_13TiffDirectoryE
libexiv2.so.14:_ZN5Exiv28Internal11TiffVisitor18visitDirectoryNextEPNS0_13TiffDirectoryE
libexiv2.so.14:_ZN5Exiv28Internal11TiffVisitor19visitBinaryArrayEndEPNS0_15TiffBinaryArrayE
libexiv2.so.14:_ZN5Exiv28Internal11TiffVisitor20visitIfdMakernoteEndEPNS0_16TiffIfdMakernoteE
libexiv2.so.14:_ZN5Exiv28Internal11TiffVisitor5setGoENS1_7GoEventEb
libexiv2.so.14:_ZN5Exiv28Internal11TiffVisitorC1Ev
libexiv2.so.14:_ZN5Exiv28Internal11TiffVisitorC2Ev
libexiv2.so.14:_ZN5Exiv28Internal11TiffVisitorD0Ev
libexiv2.so.14:_ZN5Exiv28Internal11TiffVisitorD1Ev
libexiv2.so.14:_ZN5Exiv28Internal11TiffVisitorD2Ev
libexiv2.so.14:_ZN5Exiv28Internal11exifTagListEv
libexiv2.so.14:_ZN5Exiv28Internal11newPentaxMnEtNS0_5IfdIdES1_PKhjNS_9ByteOrderE
libexiv2.so.14:_ZN5Exiv28Internal11newSigmaMn2EtNS0_5IfdIdES1_
libexiv2.so.14:_ZN5Exiv28Internal11newSony1Mn2EtNS0_5IfdIdES1_
libexiv2.so.14:_ZN5Exiv28Internal11newSony2Mn2EtNS0_5IfdIdES1_
libexiv2.so.14:_ZN5Exiv28Internal11print0x0000ERSoRKNS_5ValueEPKNS_8ExifDataE
libexiv2.so.14:_ZN5Exiv28Internal11print0x0005ERSoRKNS_5ValueEPKNS_8ExifDataE
libexiv2.so.14:_ZN5Exiv28Internal11print0x0006ERSoRKNS_5ValueEPKNS_8ExifDataE
libexiv2.so.14:_ZN5Exiv28Internal11print0x0007ERSoRKNS_5ValueEPKNS_8ExifDataE
libexiv2.so.14:_ZN5Exiv28Internal11print0x0009ERSoRKNS_5ValueEPKNS_8ExifDataE
libexiv2.so.14:_ZN5Exiv28Internal11print0x000aERSoRKNS_5ValueEPKNS_8ExifDataE
libexiv2.so.14:_ZN5Exiv28Internal11print0x000cERSoRKNS_5ValueEPKNS_8ExifDataE
libexiv2.so.14:_ZN5Exiv28Internal11print0x0019ERSoRKNS_5ValueEPKNS_8ExifDataE
libexiv2.so.14:_ZN5Exiv28Internal11print0x001eERSoRKNS_5ValueEPKNS_8ExifDataE
libexiv2.so.14:_ZN5Exiv28Internal11print0x0112ERSoRKNS_5ValueEPKNS_8ExifDataE
libexiv2.so.14:_ZN5Exiv28Internal11print0x0213ERSoRKNS_5ValueEPKNS_8ExifDataE
libexiv2.so.14:_ZN5Exiv28Internal11print0x8298ERSoRKNS_5ValueEPKNS_8ExifDataE
libexiv2.so.14:_ZN5Exiv28Internal11print0x829aERSoRKNS_5ValueEPKNS_8ExifDataE
libexiv2.so.14:_ZN5Exiv28Internal11print0x829dERSoRKNS_5ValueEPKNS_8ExifDataE
libexiv2.so.14:_ZN5Exiv28Internal11print0x8822ERSoRKNS_5ValueEPKNS_8ExifDataE
libexiv2.so.14:_ZN5Exiv28Internal11print0x8827ERSoRKNS_5ValueEPKNS_8ExifDataE
libexiv2.so.14:_ZN5Exiv28Internal11print0x9101ERSoRKNS_5ValueEPKNS_8ExifDataE
libexiv2.so.14:_ZN5Exiv28Internal11print0x9201ERSoRKNS_5ValueEPKNS_8ExifDataE
libexiv2.so.14:_ZN5Exiv28Internal11print0x9202ERSoRKNS_5ValueEPKNS_8ExifDataE
libexiv2.so.14:_ZN5Exiv28Internal11print0x9204ERSoRKNS_5ValueEPKNS_8ExifDataE
libexiv2.so.14:_ZN5Exiv28Internal11print0x9206ERSoRKNS_5ValueEPKNS_8ExifDataE
libexiv2.so.14:_ZN5Exiv28Internal11print0x9207ERSoRKNS_5ValueEPKNS_8ExifDataE
libexiv2.so.14:_ZN5Exiv28Internal11print0x9208ERSoRKNS_5ValueEPKNS_8ExifDataE
libexiv2.so.14:_ZN5Exiv28Internal11print0x920aERSoRKNS_5ValueEPKNS_8ExifDataE
libexiv2.so.14:_ZN5Exiv28Internal11print0x9286ERSoRKNS_5ValueEPKNS_8ExifDataE
libexiv2.so.14:_ZN5Exiv28Internal11print0xa001ERSoRKNS_5ValueEPKNS_8ExifDataE
libexiv2.so.14:_ZN5Exiv28Internal11print0xa217ERSoRKNS_5ValueEPKNS_8ExifDataE
libexiv2.so.14:_ZN5Exiv28Internal11print0xa300ERSoRKNS_5ValueEPKNS_8ExifDataE
libexiv2.so.14:_ZN5Exiv28Internal11print0xa301ERSoRKNS_5ValueEPKNS_8ExifDataE
libexiv2.so.14:_ZN5Exiv28Internal11print0xa401ERSoRKNS_5ValueEPKNS_8ExifDataE
libexiv2.so.14:_ZN5Exiv28Internal11print0xa402ERSoRKNS_5ValueEPKNS_8ExifDataE
libexiv2.so.14:_ZN5Exiv28Internal11print0xa403ERSoRKNS_5ValueEPKNS_8ExifDataE
libexiv2.so.14:_ZN5Exiv28Internal11print0xa404ERSoRKNS_5ValueEPKNS_8ExifDataE
libexiv2.so.14:_ZN5Exiv28Internal11print0xa405ERSoRKNS_5ValueEPKNS_8ExifDataE
libexiv2.so.14:_ZN5Exiv28Internal11print0xa406ERSoRKNS_5ValueEPKNS_8ExifDataE
libexiv2.so.14:_ZN5Exiv28Internal11print0xa407ERSoRKNS_5ValueEPKNS_8ExifDataE
libexiv2.so.14:_ZN5Exiv28Internal11print0xa409ERSoRKNS_5ValueEPKNS_8ExifDataE
libexiv2.so.14:_ZN5Exiv28Internal11print0xa40cERSoRKNS_5ValueEPKNS_8ExifDataE
libexiv2.so.14:_ZN5Exiv28Internal12FujiMnHeader15sizeOfSignatureEv
libexiv2.so.14:_ZN5Exiv28Internal12FujiMnHeader4readEPKhjNS_9ByteOrderE
libexiv2.so.14:_ZN5Exiv28Internal12FujiMnHeaderC1Ev
libexiv2.so.14:_ZN5Exiv28Internal12FujiMnHeaderC2Ev
libexiv2.so.14:_ZN5Exiv28Internal12FujiMnHeaderD0Ev
libexiv2.so.14:_ZN5Exiv28Internal12FujiMnHeaderD1Ev
libexiv2.so.14:_ZN5Exiv28Internal12FujiMnHeaderD2Ev
libexiv2.so.14:_ZN5Exiv28Internal12OffsetWriter9setOriginENS1_8OffsetIdEjNS_9ByteOrderE
libexiv2.so.14:_ZN5Exiv28Internal12OffsetWriter9setTargetENS1_8OffsetIdEj
libexiv2.so.14:_ZN5Exiv28Internal12SonyMnHeader15sizeOfSignatureEv
libexiv2.so.14:_ZN5Exiv28Internal12SonyMnHeader4readEPKhjNS_9ByteOrderE
libexiv2.so.14:_ZN5Exiv28Internal12SonyMnHeaderC1Ev
libexiv2.so.14:_ZN5Exiv28Internal12SonyMnHeaderC2Ev
libexiv2.so.14:_ZN5Exiv28Internal12SonyMnHeaderD0Ev
libexiv2.so.14:_ZN5Exiv28Internal12SonyMnHeaderD1Ev
libexiv2.so.14:_ZN5Exiv28Internal12SonyMnHeaderD2Ev
libexiv2.so.14:_ZN5Exiv28Internal12exposureTimeEf
libexiv2.so.14:_ZN5Exiv28Internal12newCasio2Mn2EtNS0_5IfdIdES1_
libexiv2.so.14:_ZN5Exiv28Internal12newNikon2Mn2EtNS0_5IfdIdES1_
libexiv2.so.14:_ZN5Exiv28Internal12newNikon3Mn2EtNS0_5IfdIdES1_
libexiv2.so.14:_ZN5Exiv28Internal12newOlympusMnEtNS0_5IfdIdES1_PKhjNS_9ByteOrderE
libexiv2.so.14:_ZN5Exiv28Internal12newPentaxMn2EtNS0_5IfdIdES1_
libexiv2.so.14:_ZN5Exiv28Internal12newSamsungMnEtNS0_5IfdIdES1_PKhjNS_9ByteOrderE
libexiv2.so.14:_ZN5Exiv28Internal12newTiffEntryEtNS0_5IfdIdE
libexiv2.so.14:_ZN5Exiv28Internal12printDegreesERSoRKNS_5ValueEPKNS_8ExifDataE
libexiv2.so.14:_ZN5Exiv28Internal12printPwColorERSoRKNS_5ValueEPKNS_8ExifDataE
libexiv2.so.14:_ZN5Exiv28Internal12printXmpDateERSoRKNS_5ValueEPKNS_8ExifDataE
libexiv2.so.14:_ZN5Exiv28Internal12stringFormatB5cxx11EPKcz
libexiv2.so.14:_ZN5Exiv28Internal13CiffComponent12dataLocationEt
libexiv2.so.14:_ZN5Exiv28Internal13CiffComponent14writeValueDataERSt6vectorIhSaIhEEj
libexiv2.so.14:_ZN5Exiv28Internal13CiffComponent3addERSt5stackINS0_9CrwSubDirESt5dequeIS3_SaIS3_EEEt
libexiv2.so.14:_ZN5Exiv28Internal13CiffComponent3addESt8auto_ptrIS1_E
libexiv2.so.14:_ZN5Exiv28Internal13CiffComponent4readEPKhjjNS_9ByteOrderE
libexiv2.so.14:_ZN5Exiv28Internal13CiffComponent5doAddERSt5stackINS0_9CrwSubDirESt5dequeIS3_SaIS3_EEEt
libexiv2.so.14:_ZN5Exiv28Internal13CiffComponent5writeERSt6vectorIhSaIhEENS_9ByteOrderEj
libexiv2.so.14:_ZN5Exiv28Internal13CiffComponent6doReadEPKhjjNS_9ByteOrderE
libexiv2.so.14:_ZN5Exiv28Internal13CiffComponent6removeERSt5stackINS0_9CrwSubDirESt5dequeIS3_SaIS3_EEEt
libexiv2.so.14:_ZN5Exiv28Internal13CiffComponent6typeIdEt
libexiv2.so.14:_ZN5Exiv28Internal13CiffComponent8doRemoveERSt5stackINS0_9CrwSubDirESt5dequeIS3_SaIS3_EEEt
libexiv2.so.14:_ZN5Exiv28Internal13CiffComponent8setValueENS_7DataBufE
libexiv2.so.14:_ZN5Exiv28Internal13CiffComponentD0Ev
libexiv2.so.14:_ZN5Exiv28Internal13CiffComponentD1Ev
libexiv2.so.14:_ZN5Exiv28Internal13CiffComponentD2Ev
libexiv2.so.14:_ZN5Exiv28Internal13CiffDirectory13readDirectoryEPKhjNS_9ByteOrderE
libexiv2.so.14:_ZN5Exiv28Internal13CiffDirectory5doAddERSt5stackINS0_9CrwSubDirESt5dequeIS3_SaIS3_EEEt
libexiv2.so.14:_ZN5Exiv28Internal13CiffDirectory5doAddESt8auto_ptrINS0_13CiffComponentEE
libexiv2.so.14:_ZN5Exiv28Internal13CiffDirectory6doReadEPKhjjNS_9ByteOrderE
libexiv2.so.14:_ZN5Exiv28Internal13CiffDirectory7doWriteERSt6vectorIhSaIhEENS_9ByteOrderEj
libexiv2.so.14:_ZN5Exiv28Internal13CiffDirectory8doRemoveERSt5stackINS0_9CrwSubDirESt5dequeIS3_SaIS3_EEEt
libexiv2.so.14:_ZN5Exiv28Internal13CiffDirectoryD0Ev
libexiv2.so.14:_ZN5Exiv28Internal13CiffDirectoryD1Ev
libexiv2.so.14:_ZN5Exiv28Internal13CiffDirectoryD2Ev
libexiv2.so.14:_ZN5Exiv28Internal13FujiMakerNote7tagListEv
libexiv2.so.14:_ZN5Exiv28Internal13SigmaMnHeader15sizeOfSignatureEv
libexiv2.so.14:_ZN5Exiv28Internal13SigmaMnHeader4readEPKhjNS_9ByteOrderE
libexiv2.so.14:_ZN5Exiv28Internal13SigmaMnHeaderC1Ev
libexiv2.so.14:_ZN5Exiv28Internal13SigmaMnHeaderC2Ev
libexiv2.so.14:_ZN5Exiv28Internal13SigmaMnHeaderD0Ev
libexiv2.so.14:_ZN5Exiv28Internal13SigmaMnHeaderD1Ev
libexiv2.so.14:_ZN5Exiv28Internal13SigmaMnHeaderD2Ev
libexiv2.so.14:_ZN5Exiv28Internal13SonyMakerNote10tagListCs2Ev
libexiv2.so.14:_ZN5Exiv28Internal13SonyMakerNote11print0xb000ERSoRKNS_5ValueEPKNS_8ExifDataE
libexiv2.so.14:_ZN5Exiv28Internal13SonyMakerNote14printImageSizeERSoRKNS_5ValueEPKNS_8ExifDataE
libexiv2.so.14:_ZN5Exiv28Internal13SonyMakerNote7tagListEv
libexiv2.so.14:_ZN5Exiv28Internal13SonyMakerNote9tagListCsEv
libexiv2.so.14:_ZN5Exiv28Internal13TiffComponent10doAddChildESt8auto_ptrIS1_E
libexiv2.so.14:_ZN5Exiv28Internal13TiffComponent5writeERNS0_9IoWrapperENS_9ByteOrderEijjRj
libexiv2.so.14:_ZN5Exiv28Internal13TiffComponent6acceptERNS0_11TiffVisitorE
libexiv2.so.14:_ZN5Exiv28Internal13TiffComponent7addNextESt8auto_ptrIS1_E
libexiv2.so.14:_ZN5Exiv28Internal13TiffComponent7addPathEtRSt5stackINS0_12TiffPathItemESt5dequeIS3_SaIS3_EEEPS1_St8auto_ptrIS1_E
libexiv2.so.14:_ZN5Exiv28Internal13TiffComponent8addChildESt8auto_ptrIS1_E
libexiv2.so.14:_ZN5Exiv28Internal13TiffComponent9doAddNextESt8auto_ptrIS1_E
libexiv2.so.14:_ZN5Exiv28Internal13TiffComponent9doAddPathEtRSt5stackINS0_12TiffPathItemESt5dequeIS3_SaIS3_EEEPS1_St8auto_ptrIS1_E
libexiv2.so.14:_ZN5Exiv28Internal13TiffComponentC1EtNS0_5IfdIdE
libexiv2.so.14:_ZN5Exiv28Internal13TiffComponentC2EtNS0_5IfdIdE
libexiv2.so.14:_ZN5Exiv28Internal13TiffComponentD0Ev
libexiv2.so.14:_ZN5Exiv28Internal13TiffComponentD1Ev
libexiv2.so.14:_ZN5Exiv28Internal13TiffComponentD2Ev
libexiv2.so.14:_ZN5Exiv28Internal13TiffDataEntry7doWriteERNS0_9IoWrapperENS_9ByteOrderEijjRj
libexiv2.so.14:_ZN5Exiv28Internal13TiffDataEntry8doAcceptERNS0_11TiffVisitorE
libexiv2.so.14:_ZN5Exiv28Internal13TiffDataEntry8doEncodeERNS0_11TiffEncoderEPKNS_9ExifdatumE
libexiv2.so.14:_ZN5Exiv28Internal13TiffDataEntry9setStripsEPKNS_5ValueEPKhjj
libexiv2.so.14:_ZN5Exiv28Internal13TiffDataEntryD0Ev
libexiv2.so.14:_ZN5Exiv28Internal13TiffDataEntryD1Ev
libexiv2.so.14:_ZN5Exiv28Internal13TiffDataEntryD2Ev
libexiv2.so.14:_ZN5Exiv28Internal13TiffDirectory10doAddChildESt8auto_ptrINS0_13TiffComponentEE
libexiv2.so.14:_ZN5Exiv28Internal13TiffDirectory7doWriteERNS0_9IoWrapperENS_9ByteOrderEijjRj
libexiv2.so.14:_ZN5Exiv28Internal13TiffDirectory8doAcceptERNS0_11TiffVisitorE
libexiv2.so.14:_ZN5Exiv28Internal13TiffDirectory9doAddNextESt8auto_ptrINS0_13TiffComponentEE
libexiv2.so.14:_ZN5Exiv28Internal13TiffDirectory9doAddPathEtRSt5stackINS0_12TiffPathItemESt5dequeIS3_SaIS3_EEEPNS0_13TiffComponentESt8auto_ptrIS9_E
libexiv2.so.14:_ZN5Exiv28Internal13TiffDirectoryC1ERKS1_
libexiv2.so.14:_ZN5Exiv28Internal13TiffDirectoryC2ERKS1_
libexiv2.so.14:_ZN5Exiv28Internal13TiffDirectoryD0Ev
libexiv2.so.14:_ZN5Exiv28Internal13TiffDirectoryD1Ev
libexiv2.so.14:_ZN5Exiv28Internal13TiffDirectoryD2Ev
libexiv2.so.14:_ZN5Exiv28Internal13TiffEntryBase11updateValueESt8auto_ptrINS_5ValueEENS_9ByteOrderE
libexiv2.so.14:_ZN5Exiv28Internal13TiffEntryBase11writeOffsetEPhitNS_9ByteOrderE
libexiv2.so.14:_ZN5Exiv28Internal13TiffEntryBase6encodeERNS0_11TiffEncoderEPKNS_9ExifdatumE
libexiv2.so.14:_ZN5Exiv28Internal13TiffEntryBase7doWriteERNS0_9IoWrapperENS_9ByteOrderEijjRj
libexiv2.so.14:_ZN5Exiv28Internal13TiffEntryBase7setDataENS_7DataBufE
libexiv2.so.14:_ZN5Exiv28Internal13TiffEntryBase7setDataEPhi
libexiv2.so.14:_ZN5Exiv28Internal13TiffEntryBase8setValueESt8auto_ptrINS_5ValueEE
libexiv2.so.14:_ZN5Exiv28Internal13TiffEntryBaseC1ERKS1_
libexiv2.so.14:_ZN5Exiv28Internal13TiffEntryBaseC1EtNS0_5IfdIdEt
libexiv2.so.14:_ZN5Exiv28Internal13TiffEntryBaseC2ERKS1_
libexiv2.so.14:_ZN5Exiv28Internal13TiffEntryBaseC2EtNS0_5IfdIdEt
libexiv2.so.14:_ZN5Exiv28Internal13TiffEntryBaseD0Ev
libexiv2.so.14:_ZN5Exiv28Internal13TiffEntryBaseD1Ev
libexiv2.so.14:_ZN5Exiv28Internal13TiffEntryBaseD2Ev
libexiv2.so.14:_ZN5Exiv28Internal13TiffMnCreator6createEtNS0_5IfdIdERKNSt7__cxx1112basic_stringIcSt11char_traitsIcESaIcEEEPKhjNS_9ByteOrderE
libexiv2.so.14:_ZN5Exiv28Internal13TiffMnCreator6createEtNS0_5IfdIdES2_
libexiv2.so.14:_ZN5Exiv28Internal13TiffSizeEntry8doAcceptERNS0_11TiffVisitorE
libexiv2.so.14:_ZN5Exiv28Internal13TiffSizeEntry8doEncodeERNS0_11TiffEncoderEPKNS_9ExifdatumE
libexiv2.so.14:_ZN5Exiv28Internal13TiffSizeEntryD0Ev
libexiv2.so.14:_ZN5Exiv28Internal13TiffSizeEntryD1Ev
libexiv2.so.14:_ZN5Exiv28Internal13TiffSizeEntryD2Ev
libexiv2.so.14:_ZN5Exiv28Internal13newOlympusMn2EtNS0_5IfdIdES1_
libexiv2.so.14:_ZN5Exiv28Internal13newSamsungMn2EtNS0_5IfdIdES1_
libexiv2.so.14:_ZN5Exiv28Internal13nikonSelectorEtPKhjPNS0_13TiffComponentE
libexiv2.so.14:_ZN5Exiv28Internal13printExifUnitERSoRKNS_5ValueEPKNS_8ExifDataE
libexiv2.so.14:_ZN5Exiv28Internal14CanonMakerNote11print0x0008ERSoRKNS_5ValueEPKNS_8ExifDataE
libexiv2.so.14:_ZN5Exiv28Internal14CanonMakerNote11print0x000cERSoRKNS_5ValueEPKNS_8ExifDataE
libexiv2.so.14:_ZN5Exiv28Internal14CanonMakerNote11printCsLensERSoRKNS_5ValueEPKNS_8ExifDataE
libexiv2.so.14:_ZN5Exiv28Internal14CanonMakerNote13printCs0x0002ERSoRKNS_5ValueEPKNS_8ExifDataE
libexiv2.so.14:_ZN5Exiv28Internal14CanonMakerNote13printSi0x0002ERSoRKNS_5ValueEPKNS_8ExifDataE
libexiv2.so.14:_ZN5Exiv28Internal14CanonMakerNote13printSi0x0003ERSoRKNS_5ValueEPKNS_8ExifDataE
libexiv2.so.14:_ZN5Exiv28Internal14CanonMakerNote13printSi0x0009ERSoRKNS_5ValueEPKNS_8ExifDataE
libexiv2.so.14:_ZN5Exiv28Internal14CanonMakerNote13printSi0x000eERSoRKNS_5ValueEPKNS_8ExifDataE
libexiv2.so.14:_ZN5Exiv28Internal14CanonMakerNote13printSi0x0013ERSoRKNS_5ValueEPKNS_8ExifDataE
libexiv2.so.14:_ZN5Exiv28Internal14CanonMakerNote13printSi0x0015ERSoRKNS_5ValueEPKNS_8ExifDataE
libexiv2.so.14:_ZN5Exiv28Internal14CanonMakerNote13printSi0x0016ERSoRKNS_5ValueEPKNS_8ExifDataE
libexiv2.so.14:_ZN5Exiv28Internal14CanonMakerNote13printSi0x0017ERSoRKNS_5ValueEPKNS_8ExifDataE
libexiv2.so.14:_ZN5Exiv28Internal14CanonMakerNote15printCsLensTypeERSoRKNS_5ValueEPKNS_8ExifDataE
libexiv2.so.14:_ZN5Exiv28Internal14CanonMakerNote16printFocalLengthERSoRKNS_5ValueEPKNS_8ExifDataE
libexiv2.so.14:_ZN5Exiv28Internal14CanonMakerNote17printFiFileNumberERSoRKNS_5ValueEPKNS_8ExifDataE
libexiv2.so.14:_ZN5Exiv28Internal14CanonMakerNote20printFiFocusDistanceERSoRKNS_5ValueEPKNS_8ExifDataE
libexiv2.so.14:_ZN5Exiv28Internal14CanonMakerNote7tagListEv
libexiv2.so.14:_ZN5Exiv28Internal14CanonMakerNote9tagListCfEv
libexiv2.so.14:_ZN5Exiv28Internal14CanonMakerNote9tagListCsEv
libexiv2.so.14:_ZN5Exiv28Internal14CanonMakerNote9tagListFiEv
libexiv2.so.14:_ZN5Exiv28Internal14CanonMakerNote9tagListPaEv
libexiv2.so.14:_ZN5Exiv28Internal14CanonMakerNote9tagListPiEv
libexiv2.so.14:_ZN5Exiv28Internal14CanonMakerNote9tagListPrEv
libexiv2.so.14:_ZN5Exiv28Internal14CanonMakerNote9tagListSiEv
libexiv2.so.14:_ZN5Exiv28Internal14Casio2MnHeader15sizeOfSignatureEv
libexiv2.so.14:_ZN5Exiv28Internal14Casio2MnHeader4readEPKhjNS_9ByteOrderE
libexiv2.so.14:_ZN5Exiv28Internal14Casio2MnHeaderC1Ev
libexiv2.so.14:_ZN5Exiv28Internal14Casio2MnHeaderC2Ev
libexiv2.so.14:_ZN5Exiv28Internal14Casio2MnHeaderD0Ev
libexiv2.so.14:_ZN5Exiv28Internal14Casio2MnHeaderD1Ev
libexiv2.so.14:_ZN5Exiv28Internal14Casio2MnHeaderD2Ev
libexiv2.so.14:_ZN5Exiv28Internal14CasioMakerNote11print0x0006ERSoRKNS_5ValueEPKNS_8ExifDataE
libexiv2.so.14:_ZN5Exiv28Internal14CasioMakerNote11print0x0015ERSoRKNS_5ValueEPKNS_8ExifDataE
libexiv2.so.14:_ZN5Exiv28Internal14CasioMakerNote7tagListEv
libexiv2.so.14:_ZN5Exiv28Internal14Nikon2MnHeader15sizeOfSignatureEv
libexiv2.so.14:_ZN5Exiv28Internal14Nikon2MnHeader4readEPKhjNS_9ByteOrderE
libexiv2.so.14:_ZN5Exiv28Internal14Nikon2MnHeaderC1Ev
libexiv2.so.14:_ZN5Exiv28Internal14Nikon2MnHeaderC2Ev
libexiv2.so.14:_ZN5Exiv28Internal14Nikon2MnHeaderD0Ev
libexiv2.so.14:_ZN5Exiv28Internal14Nikon2MnHeaderD1Ev
libexiv2.so.14:_ZN5Exiv28Internal14Nikon2MnHeaderD2Ev
libexiv2.so.14:_ZN5Exiv28Internal14Nikon3MnHeader12setByteOrderENS_9ByteOrderE
libexiv2.so.14:_ZN5Exiv28Internal14Nikon3MnHeader15sizeOfSignatureEv
libexiv2.so.14:_ZN5Exiv28Internal14Nikon3MnHeader4readEPKhjNS_9ByteOrderE
libexiv2.so.14:_ZN5Exiv28Internal14Nikon3MnHeaderC1Ev
libexiv2.so.14:_ZN5Exiv28Internal14Nikon3MnHeaderC2Ev
libexiv2.so.14:_ZN5Exiv28Internal14Nikon3MnHeaderD0Ev
libexiv2.so.14:_ZN5Exiv28Internal14Nikon3MnHeaderD1Ev
libexiv2.so.14:_ZN5Exiv28Internal14Nikon3MnHeaderD2Ev
libexiv2.so.14:_ZN5Exiv28Internal14PentaxMnHeader15sizeOfSignatureEv
libexiv2.so.14:_ZN5Exiv28Internal14PentaxMnHeader4readEPKhjNS_9ByteOrderE
libexiv2.so.14:_ZN5Exiv28Internal14PentaxMnHeaderC1Ev
libexiv2.so.14:_ZN5Exiv28Internal14PentaxMnHeaderC2Ev
libexiv2.so.14:_ZN5Exiv28Internal14PentaxMnHeaderD0Ev
libexiv2.so.14:_ZN5Exiv28Internal14PentaxMnHeaderD1Ev
libexiv2.so.14:_ZN5Exiv28Internal14PentaxMnHeaderD2Ev
libexiv2.so.14:_ZN5Exiv28Internal14SigmaMakerNote11print0x0008ERSoRKNS_5ValueEPKNS_8ExifDataE
libexiv2.so.14:_ZN5Exiv28Internal14SigmaMakerNote11print0x0009ERSoRKNS_5ValueEPKNS_8ExifDataE
libexiv2.so.14:_ZN5Exiv28Internal14SigmaMakerNote15printStripLabelERSoRKNS_5ValueEPKNS_8ExifDataE
libexiv2.so.14:_ZN5Exiv28Internal14SigmaMakerNote7tagListEv
libexiv2.so.14:_ZN5Exiv28Internal14TiffHeaderBase12setByteOrderENS_9ByteOrderE
libexiv2.so.14:_ZN5Exiv28Internal14TiffHeaderBase4readEPKhj
libexiv2.so.14:_ZN5Exiv28Internal14TiffHeaderBase9setOffsetEj
libexiv2.so.14:_ZN5Exiv28Internal14TiffHeaderBaseC1EtjNS_9ByteOrderEj
libexiv2.so.14:_ZN5Exiv28Internal14TiffHeaderBaseC2EtjNS_9ByteOrderEj
libexiv2.so.14:_ZN5Exiv28Internal14TiffHeaderBaseD0Ev
libexiv2.so.14:_ZN5Exiv28Internal14TiffHeaderBaseD1Ev
libexiv2.so.14:_ZN5Exiv28Internal14TiffHeaderBaseD2Ev
libexiv2.so.14:_ZN5Exiv28Internal14TiffImageEntry7doWriteERNS0_9IoWrapperENS_9ByteOrderEijjRj
libexiv2.so.14:_ZN5Exiv28Internal14TiffImageEntry8doAcceptERNS0_11TiffVisitorE
libexiv2.so.14:_ZN5Exiv28Internal14TiffImageEntry8doEncodeERNS0_11TiffEncoderEPKNS_9ExifdatumE
libexiv2.so.14:_ZN5Exiv28Internal14TiffImageEntry9setStripsEPKNS_5ValueEPKhjj
libexiv2.so.14:_ZN5Exiv28Internal14TiffImageEntryD0Ev
libexiv2.so.14:_ZN5Exiv28Internal14TiffImageEntryD1Ev
libexiv2.so.14:_ZN5Exiv28Internal14TiffImageEntryD2Ev
libexiv2.so.14:_ZN5Exiv28Internal14binaryToStringB5cxx11ERNS_7DataBufEmm
libexiv2.so.14:_ZN5Exiv28Internal14isTiffImageTagEtNS0_5IfdIdE
libexiv2.so.14:_ZN5Exiv28Internal14newOlympus2Mn2EtNS0_5IfdIdES1_
libexiv2.so.14:_ZN5Exiv28Internal14newPanasonicMnEtNS0_5IfdIdES1_PKhjNS_9ByteOrderE
libexiv2.so.14:_ZN5Exiv28Internal14newTiffMnEntryEtNS0_5IfdIdE
libexiv2.so.14:_ZN5Exiv28Internal14printGPSDirRefERSoRKNS_5ValueEPKNS_8ExifDataE
libexiv2.so.14:_ZN5Exiv28Internal14sonyCsSelectorEtPKhjPNS0_13TiffComponentE
libexiv2.so.14:_ZN5Exiv28Internal15Casio2MakerNote11print0x2001ERSoRKNS_5ValueEPKNS_8ExifDataE
libexiv2.so.14:_ZN5Exiv28Internal15Casio2MakerNote11print0x2022ERSoRKNS_5ValueEPKNS_8ExifDataE
libexiv2.so.14:_ZN5Exiv28Internal15Casio2MakerNote7tagListEv
libexiv2.so.14:_ZN5Exiv28Internal15Nikon1MakerNote11print0x0002ERSoRKNS_5ValueEPKNS_8ExifDataE
libexiv2.so.14:_ZN5Exiv28Internal15Nikon1MakerNote11print0x0007ERSoRKNS_5ValueEPKNS_8ExifDataE
libexiv2.so.14:_ZN5Exiv28Internal15Nikon1MakerNote11print0x0085ERSoRKNS_5ValueEPKNS_8ExifDataE
libexiv2.so.14:_ZN5Exiv28Internal15Nikon1MakerNote11print0x0086ERSoRKNS_5ValueEPKNS_8ExifDataE
libexiv2.so.14:_ZN5Exiv28Internal15Nikon1MakerNote11print0x0088ERSoRKNS_5ValueEPKNS_8ExifDataE
libexiv2.so.14:_ZN5Exiv28Internal15Nikon1MakerNote7tagListEv
libexiv2.so.14:_ZN5Exiv28Internal15Nikon2MakerNote11print0x000aERSoRKNS_5ValueEPKNS_8ExifDataE
libexiv2.so.14:_ZN5Exiv28Internal15Nikon2MakerNote7tagListEv
libexiv2.so.14:_ZN5Exiv28Internal15Nikon3MakerNote10printFocalERSoRKNS_5ValueEPKNS_8ExifDataE
libexiv2.so.14:_ZN5Exiv28Internal15Nikon3MakerNote10printIiIsoERSoRKNS_5ValueEPKNS_8ExifDataE
libexiv2.so.14:_ZN5Exiv28Internal15Nikon3MakerNote10tagListAFTEv
libexiv2.so.14:_ZN5Exiv28Internal15Nikon3MakerNote10tagListAf2Ev
libexiv2.so.14:_ZN5Exiv28Internal15Nikon3MakerNote10tagListCb1Ev
libexiv2.so.14:_ZN5Exiv28Internal15Nikon3MakerNote10tagListCb2Ev
libexiv2.so.14:_ZN5Exiv28Internal15Nikon3MakerNote10tagListCb3Ev
libexiv2.so.14:_ZN5Exiv28Internal15Nikon3MakerNote10tagListCb4Ev
libexiv2.so.14:_ZN5Exiv28Internal15Nikon3MakerNote10tagListFl1Ev
libexiv2.so.14:_ZN5Exiv28Internal15Nikon3MakerNote10tagListFl2Ev
libexiv2.so.14:_ZN5Exiv28Internal15Nikon3MakerNote10tagListFl3Ev
libexiv2.so.14:_ZN5Exiv28Internal15Nikon3MakerNote10tagListLd1Ev
libexiv2.so.14:_ZN5Exiv28Internal15Nikon3MakerNote10tagListLd2Ev
libexiv2.so.14:_ZN5Exiv28Internal15Nikon3MakerNote10tagListLd3Ev
libexiv2.so.14:_ZN5Exiv28Internal15Nikon3MakerNote10tagListSi1Ev
libexiv2.so.14:_ZN5Exiv28Internal15Nikon3MakerNote10tagListSi2Ev
libexiv2.so.14:_ZN5Exiv28Internal15Nikon3MakerNote10tagListSi3Ev
libexiv2.so.14:_ZN5Exiv28Internal15Nikon3MakerNote10tagListSi4Ev
libexiv2.so.14:_ZN5Exiv28Internal15Nikon3MakerNote10tagListSi5Ev
libexiv2.so.14:_ZN5Exiv28Internal15Nikon3MakerNote11print0x0002ERSoRKNS_5ValueEPKNS_8ExifDataE
libexiv2.so.14:_ZN5Exiv28Internal15Nikon3MakerNote11print0x0007ERSoRKNS_5ValueEPKNS_8ExifDataE
libexiv2.so.14:_ZN5Exiv28Internal15Nikon3MakerNote11print0x0083ERSoRKNS_5ValueEPKNS_8ExifDataE
libexiv2.so.14:_ZN5Exiv28Internal15Nikon3MakerNote11print0x0084ERSoRKNS_5ValueEPKNS_8ExifDataE
libexiv2.so.14:_ZN5Exiv28Internal15Nikon3MakerNote11print0x0085ERSoRKNS_5ValueEPKNS_8ExifDataE
libexiv2.so.14:_ZN5Exiv28Internal15Nikon3MakerNote11print0x0086ERSoRKNS_5ValueEPKNS_8ExifDataE
libexiv2.so.14:_ZN5Exiv28Internal15Nikon3MakerNote11print0x0088ERSoRKNS_5ValueEPKNS_8ExifDataE
libexiv2.so.14:_ZN5Exiv28Internal15Nikon3MakerNote11print0x0089ERSoRKNS_5ValueEPKNS_8ExifDataE
libexiv2.so.14:_ZN5Exiv28Internal15Nikon3MakerNote11print0x008bERSoRKNS_5ValueEPKNS_8ExifDataE
libexiv2.so.14:_ZN5Exiv28Internal15Nikon3MakerNote11print0x009aERSoRKNS_5ValueEPKNS_8ExifDataE
libexiv2.so.14:_ZN5Exiv28Internal15Nikon3MakerNote11print0x009eERSoRKNS_5ValueEPKNS_8ExifDataE
libexiv2.so.14:_ZN5Exiv28Internal15Nikon3MakerNote11printFStopsERSoRKNS_5ValueEPKNS_8ExifDataE
libexiv2.so.14:_ZN5Exiv28Internal15Nikon3MakerNote11printLensIdERSoRKNS_5ValueEPKNS_8ExifDataERKNSt7__cxx1112basic_stringIcSt11char_traitsIcESaIcEEE
libexiv2.so.14:_ZN5Exiv28Internal15Nikon3MakerNote11tagListCb2aEv
libexiv2.so.14:_ZN5Exiv28Internal15Nikon3MakerNote11tagListCb2bEv
libexiv2.so.14:_ZN5Exiv28Internal15Nikon3MakerNote12printLensId1ERSoRKNS_5ValueEPKNS_8ExifDataE
libexiv2.so.14:_ZN5Exiv28Internal15Nikon3MakerNote12printLensId2ERSoRKNS_5ValueEPKNS_8ExifDataE
libexiv2.so.14:_ZN5Exiv28Internal15Nikon3MakerNote12printLensId3ERSoRKNS_5ValueEPKNS_8ExifDataE
libexiv2.so.14:_ZN5Exiv28Internal15Nikon3MakerNote13printApertureERSoRKNS_5ValueEPKNS_8ExifDataE
libexiv2.so.14:_ZN5Exiv28Internal15Nikon3MakerNote13printTimeZoneERSoRKNS_5ValueEPKNS_8ExifDataE
libexiv2.so.14:_ZN5Exiv28Internal15Nikon3MakerNote18printFocusDistanceERSoRKNS_5ValueEPKNS_8ExifDataE
libexiv2.so.14:_ZN5Exiv28Internal15Nikon3MakerNote19printPictureControlERSoRKNS_5ValueEPKNS_8ExifDataE
libexiv2.so.14:_ZN5Exiv28Internal15Nikon3MakerNote20printAfPointsInFocusERSoRKNS_5ValueEPKNS_8ExifDataE
libexiv2.so.14:_ZN5Exiv28Internal15Nikon3MakerNote21printFlashFocalLengthERSoRKNS_5ValueEPKNS_8ExifDataE
libexiv2.so.14:_ZN5Exiv28Internal15Nikon3MakerNote22printExitPupilPositionERSoRKNS_5ValueEPKNS_8ExifDataE
libexiv2.so.14:_ZN5Exiv28Internal15Nikon3MakerNote23printRepeatingFlashRateERSoRKNS_5ValueEPKNS_8ExifDataE
libexiv2.so.14:_ZN5Exiv28Internal15Nikon3MakerNote24printRepeatingFlashCountERSoRKNS_5ValueEPKNS_8ExifDataE
libexiv2.so.14:_ZN5Exiv28Internal15Nikon3MakerNote7tagListEv
libexiv2.so.14:_ZN5Exiv28Internal15Nikon3MakerNote9tagListAfEv
libexiv2.so.14:_ZN5Exiv28Internal15Nikon3MakerNote9tagListFiEv
libexiv2.so.14:_ZN5Exiv28Internal15Nikon3MakerNote9tagListIiEv
libexiv2.so.14:_ZN5Exiv28Internal15Nikon3MakerNote9tagListMeEv
libexiv2.so.14:_ZN5Exiv28Internal15Nikon3MakerNote9tagListPcEv
libexiv2.so.14:_ZN5Exiv28Internal15Nikon3MakerNote9tagListVrEv
libexiv2.so.14:_ZN5Exiv28Internal15Nikon3MakerNote9tagListWtEv
libexiv2.so.14:_ZN5Exiv28Internal15OlympusMnHeader15sizeOfSignatureEv
libexiv2.so.14:_ZN5Exiv28Internal15OlympusMnHeader4readEPKhjNS_9ByteOrderE
libexiv2.so.14:_ZN5Exiv28Internal15OlympusMnHeaderC1Ev
libexiv2.so.14:_ZN5Exiv28Internal15OlympusMnHeaderC2Ev
libexiv2.so.14:_ZN5Exiv28Internal15OlympusMnHeaderD0Ev
libexiv2.so.14:_ZN5Exiv28Internal15OlympusMnHeaderD1Ev
libexiv2.so.14:_ZN5Exiv28Internal15OlympusMnHeaderD2Ev
libexiv2.so.14:_ZN5Exiv28Internal15PentaxMakerNote15printPentaxDateERSoRKNS_5ValueEPKNS_8ExifDataE
libexiv2.so.14:_ZN5Exiv28Internal15PentaxMakerNote15printPentaxTimeERSoRKNS_5ValueEPKNS_8ExifDataE
libexiv2.so.14:_ZN5Exiv28Internal15PentaxMakerNote17printPentaxFValueERSoRKNS_5ValueEPKNS_8ExifDataE
libexiv2.so.14:_ZN5Exiv28Internal15PentaxMakerNote18printPentaxVersionERSoRKNS_5ValueEPKNS_8ExifDataE
libexiv2.so.14:_ZN5Exiv28Internal15PentaxMakerNote19printPentaxExposureERSoRKNS_5ValueEPKNS_8ExifDataE
libexiv2.so.14:_ZN5Exiv28Internal15PentaxMakerNote21printPentaxBracketingERSoRKNS_5ValueEPKNS_8ExifDataE
libexiv2.so.14:_ZN5Exiv28Internal15PentaxMakerNote21printPentaxResolutionERSoRKNS_5ValueEPKNS_8ExifDataE
libexiv2.so.14:_ZN5Exiv28Internal15PentaxMakerNote22printPentaxFocalLengthERSoRKNS_5ValueEPKNS_8ExifDataE
libexiv2.so.14:_ZN5Exiv28Internal15PentaxMakerNote22printPentaxTemperatureERSoRKNS_5ValueEPKNS_8ExifDataE
libexiv2.so.14:_ZN5Exiv28Internal15PentaxMakerNote23printPentaxCompensationERSoRKNS_5ValueEPKNS_8ExifDataE
libexiv2.so.14:_ZN5Exiv28Internal15PentaxMakerNote28printPentaxFlashCompensationERSoRKNS_5ValueEPKNS_8ExifDataE
libexiv2.so.14:_ZN5Exiv28Internal15PentaxMakerNote7tagListEv
libexiv2.so.14:_ZN5Exiv28Internal15SamsungMnHeader4readEPKhjNS_9ByteOrderE
libexiv2.so.14:_ZN5Exiv28Internal15SamsungMnHeaderC1Ev
libexiv2.so.14:_ZN5Exiv28Internal15SamsungMnHeaderC2Ev
libexiv2.so.14:_ZN5Exiv28Internal15TiffBinaryArray10addElementEjRKNS0_8ArrayDefE
libexiv2.so.14:_ZN5Exiv28Internal15TiffBinaryArray10doAddChildESt8auto_ptrINS0_13TiffComponentEE
libexiv2.so.14:_ZN5Exiv28Internal15TiffBinaryArray10initializeENS0_5IfdIdE
libexiv2.so.14:_ZN5Exiv28Internal15TiffBinaryArray10initializeEPNS0_13TiffComponentE
libexiv2.so.14:_ZN5Exiv28Internal15TiffBinaryArray14iniOrigDataBufEv
libexiv2.so.14:_ZN5Exiv28Internal15TiffBinaryArray14updOrigDataBufEPKhj
libexiv2.so.14:_ZN5Exiv28Internal15TiffBinaryArray7doWriteERNS0_9IoWrapperENS_9ByteOrderEijjRj
libexiv2.so.14:_ZN5Exiv28Internal15TiffBinaryArray8doAcceptERNS0_11TiffVisitorE
libexiv2.so.14:_ZN5Exiv28Internal15TiffBinaryArray8doEncodeERNS0_11TiffEncoderEPKNS_9ExifdatumE
libexiv2.so.14:_ZN5Exiv28Internal15TiffBinaryArray9doAddPathEtRSt5stackINS0_12TiffPathItemESt5dequeIS3_SaIS3_EEEPNS0_13TiffComponentESt8auto_ptrIS9_E
libexiv2.so.14:_ZN5Exiv28Internal15TiffBinaryArrayC1ERKS1_
libexiv2.so.14:_ZN5Exiv28Internal15TiffBinaryArrayC1EtNS0_5IfdIdEPKNS0_8ArrayCfgEPKNS0_8ArrayDefEi
libexiv2.so.14:_ZN5Exiv28Internal15TiffBinaryArrayC1EtNS0_5IfdIdEPKNS0_8ArraySetEiPFitPKhjPNS0_13TiffComponentEE
libexiv2.so.14:_ZN5Exiv28Internal15TiffBinaryArrayC2ERKS1_
libexiv2.so.14:_ZN5Exiv28Internal15TiffBinaryArrayC2EtNS0_5IfdIdEPKNS0_8ArrayCfgEPKNS0_8ArrayDefEi
libexiv2.so.14:_ZN5Exiv28Internal15TiffBinaryArrayC2EtNS0_5IfdIdEPKNS0_8ArraySetEiPFitPKhjPNS0_13TiffComponentEE
libexiv2.so.14:_ZN5Exiv28Internal15TiffBinaryArrayD0Ev
libexiv2.so.14:_ZN5Exiv28Internal15TiffBinaryArrayD1Ev
libexiv2.so.14:_ZN5Exiv28Internal15TiffBinaryArrayD2Ev
libexiv2.so.14:_ZN5Exiv28Internal15newPanasonicMn2EtNS0_5IfdIdES1_
libexiv2.so.14:_ZN5Exiv28Internal15newPentaxDngMn2EtNS0_5IfdIdES1_
libexiv2.so.14:_ZN5Exiv28Internal15printXmpVersionERSoRKNS_5ValueEPKNS_8ExifDataE
libexiv2.so.14:_ZN5Exiv28Internal16MinoltaMakerNote11tagListCs5DEv
libexiv2.so.14:_ZN5Exiv28Internal16MinoltaMakerNote11tagListCs7DEv
libexiv2.so.14:_ZN5Exiv28Internal16MinoltaMakerNote12tagListCsStdEv
libexiv2.so.14:_ZN5Exiv28Internal16MinoltaMakerNote13tagListCsA100Ev
libexiv2.so.14:_ZN5Exiv28Internal16MinoltaMakerNote19printMinoltaDateStdERSoRKNS_5ValueEPKNS_8ExifDataE
libexiv2.so.14:_ZN5Exiv28Internal16MinoltaMakerNote19printMinoltaTimeStdERSoRKNS_5ValueEPKNS_8ExifDataE
libexiv2.so.14:_ZN5Exiv28Internal16MinoltaMakerNote22printMinoltaFNumberStdERSoRKNS_5ValueEPKNS_8ExifDataE
libexiv2.so.14:_ZN5Exiv28Internal16MinoltaMakerNote25printMinoltaBrightnessStdERSoRKNS_5ValueEPKNS_8ExifDataE
libexiv2.so.14:_ZN5Exiv28Internal16MinoltaMakerNote26printMinoltaFocalLengthStdERSoRKNS_5ValueEPKNS_8ExifDataE
libexiv2.so.14:_ZN5Exiv28Internal16MinoltaMakerNote27printMinoltaExposureTimeStdERSoRKNS_5ValueEPKNS_8ExifDataE
libexiv2.so.14:_ZN5Exiv28Internal16MinoltaMakerNote27printMinoltaWhiteBalanceStdERSoRKNS_5ValueEPKNS_8ExifDataE
libexiv2.so.14:_ZN5Exiv28Internal16MinoltaMakerNote28printMinoltaExposureSpeedStdERSoRKNS_5ValueEPKNS_8ExifDataE
libexiv2.so.14:_ZN5Exiv28Internal16MinoltaMakerNote32printMinoltaExposureManualBias5DERSoRKNS_5ValueEPKNS_8ExifDataE
libexiv2.so.14:_ZN5Exiv28Internal16MinoltaMakerNote32printMinoltaFlashExposureCompStdERSoRKNS_5ValueEPKNS_8ExifDataE
libexiv2.so.14:_ZN5Exiv28Internal16MinoltaMakerNote34printMinoltaExposureCompensation5DERSoRKNS_5ValueEPKNS_8ExifDataE
libexiv2.so.14:_ZN5Exiv28Internal16MinoltaMakerNote35printMinoltaExposureCompensationStdERSoRKNS_5ValueEPKNS_8ExifDataE
libexiv2.so.14:_ZN5Exiv28Internal16MinoltaMakerNote7tagListEv
libexiv2.so.14:_ZN5Exiv28Internal16Olympus2MnHeader15sizeOfSignatureEv
libexiv2.so.14:_ZN5Exiv28Internal16Olympus2MnHeader4readEPKhjNS_9ByteOrderE
libexiv2.so.14:_ZN5Exiv28Internal16Olympus2MnHeaderC1Ev
libexiv2.so.14:_ZN5Exiv28Internal16Olympus2MnHeaderC2Ev
libexiv2.so.14:_ZN5Exiv28Internal16Olympus2MnHeaderD0Ev
libexiv2.so.14:_ZN5Exiv28Internal16Olympus2MnHeaderD1Ev
libexiv2.so.14:_ZN5Exiv28Internal16Olympus2MnHeaderD2Ev
libexiv2.so.14:_ZN5Exiv28Internal16OlympusMakerNote10tagListRd2Ev
libexiv2.so.14:_ZN5Exiv28Internal16OlympusMakerNote11print0x0200ERSoRKNS_5ValueEPKNS_8ExifDataE
libexiv2.so.14:_ZN5Exiv28Internal16OlympusMakerNote11print0x0201ERSoRKNS_5ValueEPKNS_8ExifDataE
libexiv2.so.14:_ZN5Exiv28Internal16OlympusMakerNote11print0x0204ERSoRKNS_5ValueEPKNS_8ExifDataE
libexiv2.so.14:_ZN5Exiv28Internal16OlympusMakerNote11print0x0209ERSoRKNS_5ValueEPKNS_8ExifDataE
libexiv2.so.14:_ZN5Exiv28Internal16OlympusMakerNote11print0x0305ERSoRKNS_5ValueEPKNS_8ExifDataE
libexiv2.so.14:_ZN5Exiv28Internal16OlympusMakerNote11print0x0308ERSoRKNS_5ValueEPKNS_8ExifDataE
libexiv2.so.14:_ZN5Exiv28Internal16OlympusMakerNote11print0x050fERSoRKNS_5ValueEPKNS_8ExifDataE
libexiv2.so.14:_ZN5Exiv28Internal16OlympusMakerNote11print0x0527ERSoRKNS_5ValueEPKNS_8ExifDataE
libexiv2.so.14:_ZN5Exiv28Internal16OlympusMakerNote11print0x0529ERSoRKNS_5ValueEPKNS_8ExifDataE
libexiv2.so.14:_ZN5Exiv28Internal16OlympusMakerNote11print0x1015ERSoRKNS_5ValueEPKNS_8ExifDataE
libexiv2.so.14:_ZN5Exiv28Internal16OlympusMakerNote11print0x1209ERSoRKNS_5ValueEPKNS_8ExifDataE
libexiv2.so.14:_ZN5Exiv28Internal16OlympusMakerNote13printCs0x0301ERSoRKNS_5ValueEPKNS_8ExifDataE
libexiv2.so.14:_ZN5Exiv28Internal16OlympusMakerNote13printEq0x0301ERSoRKNS_5ValueEPKNS_8ExifDataE
libexiv2.so.14:_ZN5Exiv28Internal16OlympusMakerNote7tagListEv
libexiv2.so.14:_ZN5Exiv28Internal16OlympusMakerNote9tagListCsEv
libexiv2.so.14:_ZN5Exiv28Internal16OlympusMakerNote9tagListEqEv
libexiv2.so.14:_ZN5Exiv28Internal16OlympusMakerNote9tagListFeEv
libexiv2.so.14:_ZN5Exiv28Internal16OlympusMakerNote9tagListFiEv
libexiv2.so.14:_ZN5Exiv28Internal16OlympusMakerNote9tagListIpEv
libexiv2.so.14:_ZN5Exiv28Internal16OlympusMakerNote9tagListRdEv
libexiv2.so.14:_ZN5Exiv28Internal16OlympusMakerNote9tagListRiEv
libexiv2.so.14:_ZN5Exiv28Internal16TiffIfdMakernote10doAddChildESt8auto_ptrINS0_13TiffComponentEE
libexiv2.so.14:_ZN5Exiv28Internal16TiffIfdMakernote10readHeaderEPKhjNS_9ByteOrderE
libexiv2.so.14:_ZN5Exiv28Internal16TiffIfdMakernote12setByteOrderENS_9ByteOrderE
libexiv2.so.14:_ZN5Exiv28Internal16TiffIfdMakernote7doWriteERNS0_9IoWrapperENS_9ByteOrderEijjRj
libexiv2.so.14:_ZN5Exiv28Internal16TiffIfdMakernote8doAcceptERNS0_11TiffVisitorE
libexiv2.so.14:_ZN5Exiv28Internal16TiffIfdMakernote9doAddNextESt8auto_ptrINS0_13TiffComponentEE
libexiv2.so.14:_ZN5Exiv28Internal16TiffIfdMakernote9doAddPathEtRSt5stackINS0_12TiffPathItemESt5dequeIS3_SaIS3_EEEPNS0_13TiffComponentESt8auto_ptrIS9_E
libexiv2.so.14:_ZN5Exiv28Internal16TiffIfdMakernoteC1EtNS0_5IfdIdES2_PNS0_8MnHeaderEb
libexiv2.so.14:_ZN5Exiv28Internal16TiffIfdMakernoteC2EtNS0_5IfdIdES2_PNS0_8MnHeaderEb
libexiv2.so.14:_ZN5Exiv28Internal16TiffIfdMakernoteD0Ev
libexiv2.so.14:_ZN5Exiv28Internal16TiffIfdMakernoteD1Ev
libexiv2.so.14:_ZN5Exiv28Internal16TiffIfdMakernoteD2Ev
libexiv2.so.14:_ZN5Exiv28Internal16TiffParserWorker17findPrimaryGroupsERSt6vectorINS0_5IfdIdESaIS3_EEPNS0_13TiffComponentE
libexiv2.so.14:_ZN5Exiv28Internal16TiffParserWorker5parseEPKhjjPNS0_14TiffHeaderBaseE
libexiv2.so.14:_ZN5Exiv28Internal16TiffParserWorker6decodeERNS_8ExifDataERNS_8IptcDataERNS_7XmpDataEPKhjjPFMNS0_11TiffDecoderEFvPKNS0_13TiffEntryBaseEERKNSt7__cxx1112basic_stringIcSt11char_traitsIcESaIcEEEjNS0_5IfdIdEEPNS0_14TiffHeaderBaseE
libexiv2.so.14:_ZN5Exiv28Internal16TiffParserWorker6encodeERNS_7BasicIoEPKhjRKNS_8ExifDataERKNS_8IptcDataERKNS_7XmpDataEjPFMNS0_11TiffEncoderEFvPNS0_13TiffEntryBaseEPKNS_9ExifdatumEERKNSt7__cxx1112basic_stringIcSt11char_traitsIcESaIcEEEjNS0_5IfdIdEEPNS0_14TiffHeaderBaseEPNS0_12OffsetWriterE
libexiv2.so.14:_ZN5Exiv28Internal16printExifVersionERSoRKNS_5ValueEPKNS_8ExifDataE
libexiv2.so.14:_ZN5Exiv28Internal16printValueMinus4ERSoRKNS_5ValueEPKNS_8ExifDataE
libexiv2.so.14:_ZN5Exiv28Internal17PanasonicMnHeader15sizeOfSignatureEv
libexiv2.so.14:_ZN5Exiv28Internal17PanasonicMnHeader4readEPKhjNS_9ByteOrderE
libexiv2.so.14:_ZN5Exiv28Internal17PanasonicMnHeaderC1Ev
libexiv2.so.14:_ZN5Exiv28Internal17PanasonicMnHeaderC2Ev
libexiv2.so.14:_ZN5Exiv28Internal17PanasonicMnHeaderD0Ev
libexiv2.so.14:_ZN5Exiv28Internal17PanasonicMnHeaderD1Ev
libexiv2.so.14:_ZN5Exiv28Internal17PanasonicMnHeaderD2Ev
libexiv2.so.14:_ZN5Exiv28Internal17PentaxDngMnHeader15sizeOfSignatureEv
libexiv2.so.14:_ZN5Exiv28Internal17PentaxDngMnHeader4readEPKhjNS_9ByteOrderE
libexiv2.so.14:_ZN5Exiv28Internal17PentaxDngMnHeaderC1Ev
libexiv2.so.14:_ZN5Exiv28Internal17PentaxDngMnHeaderC2Ev
libexiv2.so.14:_ZN5Exiv28Internal17PentaxDngMnHeaderD0Ev
libexiv2.so.14:_ZN5Exiv28Internal17PentaxDngMnHeaderD1Ev
libexiv2.so.14:_ZN5Exiv28Internal17PentaxDngMnHeaderD2Ev
libexiv2.so.14:_ZN5Exiv28Internal17Samsung2MakerNote7tagListEv
libexiv2.so.14:_ZN5Exiv28Internal17Samsung2MakerNote9tagListPwEv
libexiv2.so.14:_ZN5Exiv28Internal17TiffBinaryElement7doWriteERNS0_9IoWrapperENS_9ByteOrderEijjRj
libexiv2.so.14:_ZN5Exiv28Internal17TiffBinaryElement8doAcceptERNS0_11TiffVisitorE
libexiv2.so.14:_ZN5Exiv28Internal17TiffBinaryElement8doEncodeERNS0_11TiffEncoderEPKNS_9ExifdatumE
libexiv2.so.14:_ZN5Exiv28Internal17TiffBinaryElementC1EtNS0_5IfdIdE
libexiv2.so.14:_ZN5Exiv28Internal17TiffBinaryElementC2EtNS0_5IfdIdE
libexiv2.so.14:_ZN5Exiv28Internal17TiffBinaryElementD0Ev
libexiv2.so.14:_ZN5Exiv28Internal17TiffBinaryElementD1Ev
libexiv2.so.14:_ZN5Exiv28Internal17TiffBinaryElementD2Ev
libexiv2.so.14:_ZN5Exiv28Internal17TiffDataEntryBaseD0Ev
libexiv2.so.14:_ZN5Exiv28Internal17TiffDataEntryBaseD1Ev
libexiv2.so.14:_ZN5Exiv28Internal17TiffDataEntryBaseD2Ev
libexiv2.so.14:_ZN5Exiv28Internal18PanasonicMakerNote10tagListRawEv
libexiv2.so.14:_ZN5Exiv28Internal18PanasonicMakerNote11print0x000fERSoRKNS_5ValueEPKNS_8ExifDataE
libexiv2.so.14:_ZN5Exiv28Internal18PanasonicMakerNote11print0x0023ERSoRKNS_5ValueEPKNS_8ExifDataE
libexiv2.so.14:_ZN5Exiv28Internal18PanasonicMakerNote11print0x0029ERSoRKNS_5ValueEPKNS_8ExifDataE
libexiv2.so.14:_ZN5Exiv28Internal18PanasonicMakerNote11print0x0033ERSoRKNS_5ValueEPKNS_8ExifDataE
libexiv2.so.14:_ZN5Exiv28Internal18PanasonicMakerNote11print0x0036ERSoRKNS_5ValueEPKNS_8ExifDataE
libexiv2.so.14:_ZN5Exiv28Internal18PanasonicMakerNote11print0x003cERSoRKNS_5ValueEPKNS_8ExifDataE
libexiv2.so.14:_ZN5Exiv28Internal18PanasonicMakerNote14printRollAngleERSoRKNS_5ValueEPKNS_8ExifDataE
libexiv2.so.14:_ZN5Exiv28Internal18PanasonicMakerNote15printPitchAngleERSoRKNS_5ValueEPKNS_8ExifDataE
libexiv2.so.14:_ZN5Exiv28Internal18PanasonicMakerNote18printAccelerometerERSoRKNS_5ValueEPKNS_8ExifDataE
libexiv2.so.14:_ZN5Exiv28Internal18PanasonicMakerNote18printPanasonicTextERSoRKNS_5ValueEPKNS_8ExifDataE
libexiv2.so.14:_ZN5Exiv28Internal18PanasonicMakerNote7tagListEv
libexiv2.so.14:_ZN5Exiv28Internal18printFocalLength35ERSoRKNS_5ValueEPKNS_8ExifDataE
libexiv2.so.14:_ZN5Exiv28Internal19printNormalSoftHardERSoRKNS_5ValueEPKNS_8ExifDataE
libexiv2.so.14:_ZN5Exiv28Internal20newTiffBinaryElementEtNS0_5IfdIdE
libexiv2.so.14:_ZN5Exiv28Internal22extractLensFocalLengthERNS0_36LensTypeAndFocalLengthAndMaxApertureEPKNS_8ExifDataE
libexiv2.so.14:_ZN5Exiv28Internal22printCameraTemperatureERSoRKNS_5ValueEPKNS_8ExifDataE
libexiv2.so.14:_ZN5Exiv28Internal22printMinoltaSonyLensIDERSoRKNS_5ValueEPKNS_8ExifDataE
libexiv2.so.14:_ZN5Exiv28Internal24printCsLensByFocalLengthERSoRKNS_5ValueEPKNS_8ExifDataE
libexiv2.so.14:_ZN5Exiv28Internal24printMinoltaSonyRotationERSoRKNS_5ValueEPKNS_8ExifDataE
libexiv2.so.14:_ZN5Exiv28Internal25printMinoltaSonyBoolValueERSoRKNS_5ValueEPKNS_8ExifDataE
libexiv2.so.14:_ZN5Exiv28Internal25printMinoltaSonyColorModeERSoRKNS_5ValueEPKNS_8ExifDataE
libexiv2.so.14:_ZN5Exiv28Internal25printMinoltaSonyQualityCsERSoRKNS_5ValueEPKNS_8ExifDataE
libexiv2.so.14:_ZN5Exiv28Internal25printMinoltaSonySceneModeERSoRKNS_5ValueEPKNS_8ExifDataE
libexiv2.so.14:_ZN5Exiv28Internal26printMinoltaSonyAFAreaModeERSoRKNS_5ValueEPKNS_8ExifDataE
libexiv2.so.14:_ZN5Exiv28Internal28printMinoltaSonyImageQualityERSoRKNS_5ValueEPKNS_8ExifDataE
libexiv2.so.14:_ZN5Exiv28Internal28printMinoltaSonyZoneMatchingERSoRKNS_5ValueEPKNS_8ExifDataE
libexiv2.so.14:_ZN5Exiv28Internal31printMinoltaSonyWhiteBalanceStdERSoRKNS_5ValueEPKNS_8ExifDataE
libexiv2.so.14:_ZN5Exiv28Internal32printMinoltaSonyBoolInverseValueERSoRKNS_5ValueEPKNS_8ExifDataE
libexiv2.so.14:_ZN5Exiv28Internal32printMinoltaSonyLocalAFAreaPointERSoRKNS_5ValueEPKNS_8ExifDataE
libexiv2.so.14:_ZN5Exiv28Internal33printMinoltaSonyFlashExposureCompERSoRKNS_5ValueEPKNS_8ExifDataE
libexiv2.so.14:_ZN5Exiv28Internal34printMinoltaSonyTeleconverterModelERSoRKNS_5ValueEPKNS_8ExifDataE
libexiv2.so.14:_ZN5Exiv28Internal38printCsLensByFocalLengthAndMaxApertureERSoRKNS_5ValueEPKNS_8ExifDataE
libexiv2.so.14:_ZN5Exiv28Internal41printMinoltaSonyDynamicRangeOptimizerModeERSoRKNS_5ValueEPKNS_8ExifDataE
libexiv2.so.14:_ZN5Exiv28Internal43printMinoltaSonyPrioritySetupShutterReleaseERSoRKNS_5ValueEPKNS_8ExifDataE
libexiv2.so.14:_ZN5Exiv28Internal6CrwMap10crwMappingEtt
libexiv2.so.14:_ZN5Exiv28Internal6CrwMap11decodeArrayERKNS0_13CiffComponentEPKNS0_10CrwMappingERNS_5ImageENS_9ByteOrderE
libexiv2.so.14:_ZN5Exiv28Internal6CrwMap11decodeBasicERKNS0_13CiffComponentEPKNS0_10CrwMappingERNS_5ImageENS_9ByteOrderE
libexiv2.so.14:_ZN5Exiv28Internal6CrwMap11encodeArrayERKNS_5ImageEPKNS0_10CrwMappingEPNS0_10CiffHeaderE
libexiv2.so.14:_ZN5Exiv28Internal6CrwMap11encodeBasicERKNS_5ImageEPKNS0_10CrwMappingEPNS0_10CiffHeaderE
libexiv2.so.14:_ZN5Exiv28Internal6CrwMap12decode0x0805ERKNS0_13CiffComponentEPKNS0_10CrwMappingERNS_5ImageENS_9ByteOrderE
libexiv2.so.14:_ZN5Exiv28Internal6CrwMap12decode0x080aERKNS0_13CiffComponentEPKNS0_10CrwMappingERNS_5ImageENS_9ByteOrderE
libexiv2.so.14:_ZN5Exiv28Internal6CrwMap12decode0x180eERKNS0_13CiffComponentEPKNS0_10CrwMappingERNS_5ImageENS_9ByteOrderE
libexiv2.so.14:_ZN5Exiv28Internal6CrwMap12decode0x1810ERKNS0_13CiffComponentEPKNS0_10CrwMappingERNS_5ImageENS_9ByteOrderE
libexiv2.so.14:_ZN5Exiv28Internal6CrwMap12decode0x2008ERKNS0_13CiffComponentEPKNS0_10CrwMappingERNS_5ImageENS_9ByteOrderE
libexiv2.so.14:_ZN5Exiv28Internal6CrwMap12encode0x0805ERKNS_5ImageEPKNS0_10CrwMappingEPNS0_10CiffHeaderE
libexiv2.so.14:_ZN5Exiv28Internal6CrwMap12encode0x080aERKNS_5ImageEPKNS0_10CrwMappingEPNS0_10CiffHeaderE
libexiv2.so.14:_ZN5Exiv28Internal6CrwMap12encode0x180eERKNS_5ImageEPKNS0_10CrwMappingEPNS0_10CiffHeaderE
libexiv2.so.14:_ZN5Exiv28Internal6CrwMap12encode0x1810ERKNS_5ImageEPKNS0_10CrwMappingEPNS0_10CiffHeaderE
libexiv2.so.14:_ZN5Exiv28Internal6CrwMap12encode0x2008ERKNS_5ImageEPKNS0_10CrwMappingEPNS0_10CiffHeaderE
libexiv2.so.14:_ZN5Exiv28Internal6CrwMap6decodeERKNS0_13CiffComponentERNS_5ImageENS_9ByteOrderE
libexiv2.so.14:_ZN5Exiv28Internal6CrwMap6encodeEPNS0_10CiffHeaderERKNS_5ImageE
libexiv2.so.14:_ZN5Exiv28Internal6CrwMap9loadStackERSt5stackINS0_9CrwSubDirESt5dequeIS3_SaIS3_EEEt
libexiv2.so.14:_ZN5Exiv28Internal7canonEvEl
libexiv2.so.14:_ZN5Exiv28Internal7fnumberEf
libexiv2.so.14:_ZN5Exiv28Internal7groupIdERKNSt7__cxx1112basic_stringIcSt11char_traitsIcESaIcEEE
libexiv2.so.14:_ZN5Exiv28Internal7ifdNameENS0_5IfdIdE
libexiv2.so.14:_ZN5Exiv28Internal7tagInfoERKNSt7__cxx1112basic_stringIcSt11char_traitsIcESaIcEEENS0_5IfdIdE
libexiv2.so.14:_ZN5Exiv28Internal7tagInfoEtNS0_5IfdIdE
libexiv2.so.14:_ZN5Exiv28Internal7tagListENS0_5IfdIdE
libexiv2.so.14:_ZN5Exiv28Internal7taglistERSoNS0_5IfdIdE
libexiv2.so.14:_ZN5Exiv28Internal8MnHeader12setByteOrderENS_9ByteOrderE
libexiv2.so.14:_ZN5Exiv28Internal8MnHeaderD0Ev
libexiv2.so.14:_ZN5Exiv28Internal8MnHeaderD1Ev
libexiv2.so.14:_ZN5Exiv28Internal8MnHeaderD2Ev
libexiv2.so.14:_ZN5Exiv28Internal8PngChunk11keyTXTChunkERKNS_7DataBufEb
libexiv2.so.14:_ZN5Exiv28Internal8PngChunk12zlibCompressERKNSt7__cxx1112basic_stringIcSt11char_traitsIcESaIcEEE
libexiv2.so.14:_ZN5Exiv28Internal8PngChunk13parseTXTChunkERKNS_7DataBufEiNS1_12TxtChunkTypeE
libexiv2.so.14:_ZN5Exiv28Internal8PngChunk14decodeTXTChunkEPNS_5ImageERKNS_7DataBufENS1_12TxtChunkTypeE
libexiv2.so.14:_ZN5Exiv28Internal8PngChunk14readRawProfileERKNS_7DataBufE
libexiv2.so.14:_ZN5Exiv28Internal8PngChunk14zlibUncompressEPKhjRNS_7DataBufE
libexiv2.so.14:_ZN5Exiv28Internal8PngChunk15decodeIHDRChunkERKNS_7DataBufEPiS5_
libexiv2.so.14:_ZN5Exiv28Internal8PngChunk15writeRawProfileERKNSt7__cxx1112basic_stringIcSt11char_traitsIcESaIcEEEPKc
libexiv2.so.14:_ZN5Exiv28Internal8PngChunk16makeUtf8TxtChunkERKNSt7__cxx1112basic_stringIcSt11char_traitsIcESaIcEEES9_b
libexiv2.so.14:_ZN5Exiv28Internal8PngChunk17makeAsciiTxtChunkERKNSt7__cxx1112basic_stringIcSt11char_traitsIcESaIcEEES9_b
libexiv2.so.14:_ZN5Exiv28Internal8PngChunk17makeMetadataChunkERKNSt7__cxx1112basic_stringIcSt11char_traitsIcESaIcEEENS_10MetadataIdE
libexiv2.so.14:_ZN5Exiv28Internal8PngChunk17parseChunkContentEPNS_5ImageEPKhlNS_7DataBufE
libexiv2.so.14:_ZN5Exiv28Internal8cmpTagLtEPKNS0_13TiffComponentES3_
libexiv2.so.14:_ZN5Exiv28Internal8newIfdMnEtNS0_5IfdIdES1_PKhjNS_9ByteOrderE
libexiv2.so.14:_ZN5Exiv28Internal8toTypeIdEttNS0_5IfdIdE
libexiv2.so.14:_ZN5Exiv28Internal9CiffEntry5doAddESt8auto_ptrINS0_13CiffComponentEE
libexiv2.so.14:_ZN5Exiv28Internal9CiffEntry7doWriteERSt6vectorIhSaIhEENS_9ByteOrderEj
libexiv2.so.14:_ZN5Exiv28Internal9CiffEntryD0Ev
libexiv2.so.14:_ZN5Exiv28Internal9CiffEntryD1Ev
libexiv2.so.14:_ZN5Exiv28Internal9CiffEntryD2Ev
libexiv2.so.14:_ZN5Exiv28Internal9Cr2Header4readEPKhj
libexiv2.so.14:_ZN5Exiv28Internal9Cr2HeaderC1ENS_9ByteOrderE
libexiv2.so.14:_ZN5Exiv28Internal9Cr2HeaderC2ENS_9ByteOrderE
libexiv2.so.14:_ZN5Exiv28Internal9Cr2HeaderD0Ev
libexiv2.so.14:_ZN5Exiv28Internal9Cr2HeaderD1Ev
libexiv2.so.14:_ZN5Exiv28Internal9Cr2HeaderD2Ev
libexiv2.so.14:_ZN5Exiv28Internal9IoWrapper4putbEh
libexiv2.so.14:_ZN5Exiv28Internal9IoWrapper5writeEPKhl
libexiv2.so.14:_ZN5Exiv28Internal9IoWrapper9setTargetEij
libexiv2.so.14:_ZN5Exiv28Internal9IoWrapperC1ERNS_7BasicIoEPKhlPNS0_12OffsetWriterE
libexiv2.so.14:_ZN5Exiv28Internal9IoWrapperC2ERNS_7BasicIoEPKhlPNS0_12OffsetWriterE
libexiv2.so.14:_ZN5Exiv28Internal9OrfHeader4readEPKhj
libexiv2.so.14:_ZN5Exiv28Internal9OrfHeaderC1ENS_9ByteOrderE
libexiv2.so.14:_ZN5Exiv28Internal9OrfHeaderC2ENS_9ByteOrderE
libexiv2.so.14:_ZN5Exiv28Internal9OrfHeaderD0Ev
libexiv2.so.14:_ZN5Exiv28Internal9OrfHeaderD1Ev
libexiv2.so.14:_ZN5Exiv28Internal9OrfHeaderD2Ev
libexiv2.so.14:_ZN5Exiv28Internal9Rw2HeaderC1Ev
libexiv2.so.14:_ZN5Exiv28Internal9Rw2HeaderC2Ev
libexiv2.so.14:_ZN5Exiv28Internal9Rw2HeaderD0Ev
libexiv2.so.14:_ZN5Exiv28Internal9Rw2HeaderD1Ev
libexiv2.so.14:_ZN5Exiv28Internal9Rw2HeaderD2Ev
libexiv2.so.14:_ZN5Exiv28Internal9TiffEntry8doAcceptERNS0_11TiffVisitorE
libexiv2.so.14:_ZN5Exiv28Internal9TiffEntry8doEncodeERNS0_11TiffEncoderEPKNS_9ExifdatumE
libexiv2.so.14:_ZN5Exiv28Internal9TiffEntryD0Ev
libexiv2.so.14:_ZN5Exiv28Internal9TiffEntryD1Ev
libexiv2.so.14:_ZN5Exiv28Internal9TiffEntryD2Ev
libexiv2.so.14:_ZN5Exiv28Internal9groupNameENS0_5IfdIdE
libexiv2.so.14:_ZN5Exiv28Internal9isExifIfdENS0_5IfdIdE
libexiv2.so.14:_ZN5Exiv28Internal9mnTagListEv
libexiv2.so.14:_ZN5Exiv28Internal9newFujiMnEtNS0_5IfdIdES1_PKhjNS_9ByteOrderE
libexiv2.so.14:_ZN5Exiv28Internal9newIfdMn2EtNS0_5IfdIdES1_
libexiv2.so.14:_ZN5Exiv28Internal9newSonyMnEtNS0_5IfdIdES1_PKhjNS_9ByteOrderE
libexiv2.so.14:_ZN5Exiv28Internal9packIfdIdERKNS_8ExifDataENS0_5IfdIdENS_9ByteOrderE
libexiv2.so.14:_ZN5Exiv28Internal9printLongERSoRKNS_5ValueEPKNS_8ExifDataE
libexiv2.so.14:_ZN5Exiv28Internal9printUcs2ERSoRKNS_5ValueEPKNS_8ExifDataE
libexiv2.so.14:_ZN5Exiv28Internal9tagNumberERKNSt7__cxx1112basic_stringIcSt11char_traitsIcESaIcEEENS0_5IfdIdE
libexiv2.so.14:_ZN5Exiv28InternaleqERKNS0_10TagDetailsERKNS0_36LensTypeAndFocalLengthAndMaxApertureE
libexiv2.so.14:_ZN5Exiv28IptcData3addERKNS_7IptcKeyEPNS_5ValueE
libexiv2.so.14:_ZN5Exiv28IptcData3addERKNS_9IptcdatumE
libexiv2.so.14:_ZN5Exiv28IptcData5eraseEN9__gnu_cxx17__normal_iteratorIPNS_9IptcdatumESt6vectorIS3_SaIS3_EEEE
libexiv2.so.14:_ZN5Exiv28IptcData6findIdEtt
libexiv2.so.14:_ZN5Exiv28IptcData7findKeyERKNS_7IptcKeyE
libexiv2.so.14:_ZN5Exiv28IptcData9sortByKeyEv
libexiv2.so.14:_ZN5Exiv28IptcData9sortByTagEv
libexiv2.so.14:_ZN5Exiv28IptcDataixERKNSt7__cxx1112basic_stringIcSt11char_traitsIcESaIcEEE
libexiv2.so.14:_ZN5Exiv28Jp2Image10setCommentERKNSt7__cxx1112basic_stringIcSt11char_traitsIcESaIcEEE
libexiv2.so.14:_ZN5Exiv28Jp2Image12readMetadataEv
libexiv2.so.14:_ZN5Exiv28Jp2Image13writeMetadataEv
libexiv2.so.14:_ZN5Exiv28Jp2Image15doWriteMetadataERNS_7BasicIoE
libexiv2.so.14:_ZN5Exiv28Jp2ImageC1ESt8auto_ptrINS_7BasicIoEEb
libexiv2.so.14:_ZN5Exiv28Jp2ImageC2ESt8auto_ptrINS_7BasicIoEEb
libexiv2.so.14:_ZN5Exiv28JpegBase12readMetadataEv
libexiv2.so.14:_ZN5Exiv28JpegBase13writeMetadataEv
libexiv2.so.14:_ZN5Exiv28JpegBase14printStructureERSoNS_20PrintStructureOptionE
libexiv2.so.14:_ZN5Exiv28JpegBase15doWriteMetadataERNS_7BasicIoE
libexiv2.so.14:_ZN5Exiv28JpegBase9initImageEPKhl
libexiv2.so.14:_ZN5Exiv28JpegBaseC1EiSt8auto_ptrINS_7BasicIoEEbPKhl
libexiv2.so.14:_ZN5Exiv28JpegBaseC2EiSt8auto_ptrINS_7BasicIoEEbPKhl
libexiv2.so.14:_ZN5Exiv28MrwImage10setCommentERKNSt7__cxx1112basic_stringIcSt11char_traitsIcESaIcEEE
libexiv2.so.14:_ZN5Exiv28MrwImage11setExifDataERKNS_8ExifDataE
libexiv2.so.14:_ZN5Exiv28MrwImage11setIptcDataERKNS_8IptcDataE
libexiv2.so.14:_ZN5Exiv28MrwImage12readMetadataEv
libexiv2.so.14:_ZN5Exiv28MrwImage13writeMetadataEv
libexiv2.so.14:_ZN5Exiv28MrwImageC1ESt8auto_ptrINS_7BasicIoEEb
libexiv2.so.14:_ZN5Exiv28MrwImageC2ESt8auto_ptrINS_7BasicIoEEb
libexiv2.so.14:_ZN5Exiv28OrfImage10setCommentERKNSt7__cxx1112basic_stringIcSt11char_traitsIcESaIcEEE
libexiv2.so.14:_ZN5Exiv28OrfImage12readMetadataEv
libexiv2.so.14:_ZN5Exiv28OrfImage13writeMetadataEv
libexiv2.so.14:_ZN5Exiv28OrfImageC1ESt8auto_ptrINS_7BasicIoEEb
libexiv2.so.14:_ZN5Exiv28OrfImageC2ESt8auto_ptrINS_7BasicIoEEb
libexiv2.so.14:_ZN5Exiv28PgfImage12readMetadataEv
libexiv2.so.14:_ZN5Exiv28PgfImage13writeMetadataEv
libexiv2.so.14:_ZN5Exiv28PgfImage15doWriteMetadataERNS_7BasicIoE
libexiv2.so.14:_ZN5Exiv28PgfImage17readPgfHeaderSizeERNS_7BasicIoE
libexiv2.so.14:_ZN5Exiv28PgfImage18readPgfMagicNumberERNS_7BasicIoE
libexiv2.so.14:_ZN5Exiv28PgfImage22readPgfHeaderStructureERNS_7BasicIoEPiS3_
libexiv2.so.14:_ZN5Exiv28PgfImageC1ESt8auto_ptrINS_7BasicIoEEb
libexiv2.so.14:_ZN5Exiv28PgfImageC2ESt8auto_ptrINS_7BasicIoEEb
libexiv2.so.14:_ZN5Exiv28PngImage12readMetadataEv
libexiv2.so.14:_ZN5Exiv28PngImage13writeMetadataEv
libexiv2.so.14:_ZN5Exiv28PngImage14printStructureERSoNS_20PrintStructureOptionE
libexiv2.so.14:_ZN5Exiv28PngImage15doWriteMetadataERNS_7BasicIoE
libexiv2.so.14:_ZN5Exiv28PngImageC1ESt8auto_ptrINS_7BasicIoEEb
libexiv2.so.14:_ZN5Exiv28PngImageC2ESt8auto_ptrINS_7BasicIoEEb
libexiv2.so.14:_ZN5Exiv28PsdImage10setCommentERKNSt7__cxx1112basic_stringIcSt11char_traitsIcESaIcEEE
libexiv2.so.14:_ZN5Exiv28PsdImage12readMetadataEv
libexiv2.so.14:_ZN5Exiv28PsdImage13writeExifDataERKNS_8ExifDataERNS_7BasicIoE
libexiv2.so.14:_ZN5Exiv28PsdImage13writeMetadataEv
libexiv2.so.14:_ZN5Exiv28PsdImage15doWriteMetadataERNS_7BasicIoE
libexiv2.so.14:_ZN5Exiv28PsdImage17readResourceBlockEtj
libexiv2.so.14:_ZN5Exiv28PsdImageC1ESt8auto_ptrINS_7BasicIoEE
libexiv2.so.14:_ZN5Exiv28PsdImageC2ESt8auto_ptrINS_7BasicIoEE
libexiv2.so.14:_ZN5Exiv28RafImage10setCommentERKNSt7__cxx1112basic_stringIcSt11char_traitsIcESaIcEEE
libexiv2.so.14:_ZN5Exiv28RafImage11setExifDataERKNS_8ExifDataE
libexiv2.so.14:_ZN5Exiv28RafImage11setIptcDataERKNS_8IptcDataE
libexiv2.so.14:_ZN5Exiv28RafImage12readMetadataEv
libexiv2.so.14:_ZN5Exiv28RafImage13writeMetadataEv
libexiv2.so.14:_ZN5Exiv28RafImageC1ESt8auto_ptrINS_7BasicIoEEb
libexiv2.so.14:_ZN5Exiv28RafImageC2ESt8auto_ptrINS_7BasicIoEEb
libexiv2.so.14:_ZN5Exiv28RemoteIo16populateFakeDataEv
libexiv2.so.14:_ZN5Exiv28RemoteIo4Impl14populateBlocksEmm
libexiv2.so.14:_ZN5Exiv28RemoteIo4ImplC1ERKNSt7__cxx1112basic_stringIcSt11char_traitsIcESaIcEEEm
libexiv2.so.14:_ZN5Exiv28RemoteIo4ImplC2ERKNSt7__cxx1112basic_stringIcSt11char_traitsIcESaIcEEEm
libexiv2.so.14:_ZN5Exiv28RemoteIo4ImplD0Ev
libexiv2.so.14:_ZN5Exiv28RemoteIo4ImplD1Ev
libexiv2.so.14:_ZN5Exiv28RemoteIo4ImplD2Ev
libexiv2.so.14:_ZN5Exiv28RemoteIo4getbEv
libexiv2.so.14:_ZN5Exiv28RemoteIo4mmapEb
libexiv2.so.14:_ZN5Exiv28RemoteIo4openEv
libexiv2.so.14:_ZN5Exiv28RemoteIo4putbEh
libexiv2.so.14:_ZN5Exiv28RemoteIo4readEPhl
libexiv2.so.14:_ZN5Exiv28RemoteIo4readEl
libexiv2.so.14:_ZN5Exiv28RemoteIo4seekElNS_7BasicIo8PositionE
libexiv2.so.14:_ZN5Exiv28RemoteIo5closeEv
libexiv2.so.14:_ZN5Exiv28RemoteIo5writeEPKhl
libexiv2.so.14:_ZN5Exiv28RemoteIo5writeERNS_7BasicIoE
libexiv2.so.14:_ZN5Exiv28RemoteIo6munmapEv
libexiv2.so.14:_ZN5Exiv28RemoteIo8transferERNS_7BasicIoE
libexiv2.so.14:_ZN5Exiv28RemoteIoD0Ev
libexiv2.so.14:_ZN5Exiv28RemoteIoD1Ev
libexiv2.so.14:_ZN5Exiv28RemoteIoD2Ev
libexiv2.so.14:_ZN5Exiv28Rw2Image10setCommentERKNSt7__cxx1112basic_stringIcSt11char_traitsIcESaIcEEE
libexiv2.so.14:_ZN5Exiv28Rw2Image11setExifDataERKNS_8ExifDataE
libexiv2.so.14:_ZN5Exiv28Rw2Image11setIptcDataERKNS_8IptcDataE
libexiv2.so.14:_ZN5Exiv28Rw2Image12readMetadataEv
libexiv2.so.14:_ZN5Exiv28Rw2Image13writeMetadataEv
libexiv2.so.14:_ZN5Exiv28Rw2ImageC1ESt8auto_ptrINS_7BasicIoEE
libexiv2.so.14:_ZN5Exiv28Rw2ImageC2ESt8auto_ptrINS_7BasicIoEE
libexiv2.so.14:_ZN5Exiv28TgaImage10setCommentERKNSt7__cxx1112basic_stringIcSt11char_traitsIcESaIcEEE
libexiv2.so.14:_ZN5Exiv28TgaImage11setExifDataERKNS_8ExifDataE
libexiv2.so.14:_ZN5Exiv28TgaImage11setIptcDataERKNS_8IptcDataE
libexiv2.so.14:_ZN5Exiv28TgaImage12readMetadataEv
libexiv2.so.14:_ZN5Exiv28TgaImage13writeMetadataEv
libexiv2.so.14:_ZN5Exiv28TgaImageC1ESt8auto_ptrINS_7BasicIoEE
libexiv2.so.14:_ZN5Exiv28TgaImageC2ESt8auto_ptrINS_7BasicIoEE
libexiv2.so.14:_ZN5Exiv28TypeInfo6typeIdERKNSt7__cxx1112basic_stringIcSt11char_traitsIcESaIcEEE
libexiv2.so.14:_ZN5Exiv28TypeInfo8typeNameENS_6TypeIdE
libexiv2.so.14:_ZN5Exiv28TypeInfo8typeSizeENS_6TypeIdE
libexiv2.so.14:_ZN5Exiv28XmpValue12setXmpStructENS0_9XmpStructE
libexiv2.so.14:_ZN5Exiv28XmpValue12xmpArrayTypeENS_6TypeIdE
libexiv2.so.14:_ZN5Exiv28XmpValue15setXmpArrayTypeENS0_12XmpArrayTypeE
libexiv2.so.14:_ZN5Exiv28XmpValue4readEPKhlNS_9ByteOrderE
libexiv2.so.14:_ZN5Exiv28XmpValueC1ENS_6TypeIdE
libexiv2.so.14:_ZN5Exiv28XmpValueC2ENS_6TypeIdE
libexiv2.so.14:_ZN5Exiv28XmpValueaSERKS0_
libexiv2.so.14:_ZN5Exiv28Xmpdatum4ImplC1ERKNS_6XmpKeyEPKNS_5ValueE
libexiv2.so.14:_ZN5Exiv28Xmpdatum4ImplC1ERKS1_
libexiv2.so.14:_ZN5Exiv28Xmpdatum4ImplC2ERKNS_6XmpKeyEPKNS_5ValueE
libexiv2.so.14:_ZN5Exiv28Xmpdatum4ImplC2ERKS1_
libexiv2.so.14:_ZN5Exiv28Xmpdatum4ImplaSERKS1_
libexiv2.so.14:_ZN5Exiv28Xmpdatum8setValueEPKNS_5ValueE
libexiv2.so.14:_ZN5Exiv28Xmpdatum8setValueERKNSt7__cxx1112basic_stringIcSt11char_traitsIcESaIcEEE
libexiv2.so.14:_ZN5Exiv28XmpdatumC1ERKNS_6XmpKeyEPKNS_5ValueE
libexiv2.so.14:_ZN5Exiv28XmpdatumC1ERKS0_
libexiv2.so.14:_ZN5Exiv28XmpdatumC2ERKNS_6XmpKeyEPKNS_5ValueE
libexiv2.so.14:_ZN5Exiv28XmpdatumC2ERKS0_
libexiv2.so.14:_ZN5Exiv28XmpdatumD0Ev
libexiv2.so.14:_ZN5Exiv28XmpdatumD1Ev
libexiv2.so.14:_ZN5Exiv28XmpdatumD2Ev
libexiv2.so.14:_ZN5Exiv28XmpdatumaSERKNS_5ValueE
libexiv2.so.14:_ZN5Exiv28XmpdatumaSERKNSt7__cxx1112basic_stringIcSt11char_traitsIcESaIcEEE
libexiv2.so.14:_ZN5Exiv28XmpdatumaSERKS0_
libexiv2.so.14:_ZN5Exiv28contrastERKNS_8ExifDataE
libexiv2.so.14:_ZN5Exiv28exifTimeEPKcP2tm
libexiv2.so.14:_ZN5Exiv28from_hexEc
libexiv2.so.14:_ZN5Exiv28getFloatEPKhNS_9ByteOrderE
libexiv2.so.14:_ZN5Exiv28getShortEPKhNS_9ByteOrderE
libexiv2.so.14:_ZN5Exiv28getULongEPKhNS_9ByteOrderE
libexiv2.so.14:_ZN5Exiv28isoSpeedERKNS_8ExifDataE
libexiv2.so.14:_ZN5Exiv28lensNameERKNS_8ExifDataE
libexiv2.so.14:_ZN5Exiv28readFileERKNSt7__cxx1112basic_stringIcSt11char_traitsIcESaIcEEE
libexiv2.so.14:_ZN5Exiv28strErrorB5cxx11Ev
libexiv2.so.14:_ZN5Exiv28stringToIbEET_RKNSt7__cxx1112basic_stringIcSt11char_traitsIcESaIcEEERb
libexiv2.so.14:_ZN5Exiv29Converter10cnvFromXmpEv
libexiv2.so.14:_ZN5Exiv29Converter10cnvXmpDateEPKcS2_
libexiv2.so.14:_ZN5Exiv29Converter11cnvExifDateEPKcS2_
libexiv2.so.14:_ZN5Exiv29Converter11cnvXmpArrayEPKcS2_
libexiv2.so.14:_ZN5Exiv29Converter11cnvXmpFlashEPKcS2_
libexiv2.so.14:_ZN5Exiv29Converter11cnvXmpValueEPKcS2_
libexiv2.so.14:_ZN5Exiv29Converter12cnvExifArrayEPKcS2_
libexiv2.so.14:_ZN5Exiv29Converter12cnvExifFlashEPKcS2_
libexiv2.so.14:_ZN5Exiv29Converter12cnvExifValueEPKcS2_
libexiv2.so.14:_ZN5Exiv29Converter12cnvIptcValueEPKcS2_
libexiv2.so.14:_ZN5Exiv29Converter13cnvXmpCommentEPKcS2_
libexiv2.so.14:_ZN5Exiv29Converter13cnvXmpVersionEPKcS2_
libexiv2.so.14:_ZN5Exiv29Converter14cnvExifCommentEPKcS2_
libexiv2.so.14:_ZN5Exiv29Converter14cnvExifVersionEPKcS2_
libexiv2.so.14:_ZN5Exiv29Converter14cnvXmpGPSCoordEPKcS2_
libexiv2.so.14:_ZN5Exiv29Converter15cnvExifGPSCoordEPKcS2_
libexiv2.so.14:_ZN5Exiv29Converter15syncExifWithXmpEv
libexiv2.so.14:_ZN5Exiv29Converter15writeExifDigestEv
libexiv2.so.14:_ZN5Exiv29Converter16cnvXmpGPSVersionEPKcS2_
libexiv2.so.14:_ZN5Exiv29Converter16prepareXmpTargetEPKcb
libexiv2.so.14:_ZN5Exiv29Converter17cnvExifGPSVersionEPKcS2_
libexiv2.so.14:_ZN5Exiv29Converter17cnvXmpValueToIptcEPKcS2_
libexiv2.so.14:_ZN5Exiv29Converter17computeExifDigestB5cxx11Eb
libexiv2.so.14:_ZN5Exiv29Converter17computeIptcDigestB5cxx11Ev
libexiv2.so.14:_ZN5Exiv29Converter17prepareExifTargetEPKcb
libexiv2.so.14:_ZN5Exiv29Converter17prepareIptcTargetEPKcb
libexiv2.so.14:_ZN5Exiv29Converter7cnvNoneEPKcS2_
libexiv2.so.14:_ZN5Exiv29Converter8cnvToXmpEv
libexiv2.so.14:_ZN5Exiv29ConverterC1ERNS_8ExifDataERNS_7XmpDataE
libexiv2.so.14:_ZN5Exiv29ConverterC1ERNS_8IptcDataERNS_7XmpDataEPKc
libexiv2.so.14:_ZN5Exiv29ConverterC2ERNS_8ExifDataERNS_7XmpDataE
libexiv2.so.14:_ZN5Exiv29ConverterC2ERNS_8IptcDataERNS_7XmpDataEPKc
libexiv2.so.14:_ZN5Exiv29Cr2Parser6decodeERNS_8ExifDataERNS_8IptcDataERNS_7XmpDataEPKhj
libexiv2.so.14:_ZN5Exiv29Cr2Parser6encodeERNS_7BasicIoEPKhjNS_9ByteOrderERKNS_8ExifDataERKNS_8IptcDataERKNS_7XmpDataE
libexiv2.so.14:_ZN5Exiv29CrwParser6decodeEPNS_8CrwImageEPKhj
libexiv2.so.14:_ZN5Exiv29CrwParser6encodeERSt6vectorIhSaIhEEPKhjPKNS_8CrwImageE
libexiv2.so.14:_ZN5Exiv29DataValue4readEPKhlNS_9ByteOrderE
libexiv2.so.14:_ZN5Exiv29DataValue4readERKNSt7__cxx1112basic_stringIcSt11char_traitsIcESaIcEEE
libexiv2.so.14:_ZN5Exiv29DataValueC1ENS_6TypeIdE
libexiv2.so.14:_ZN5Exiv29DataValueC1EPKhlNS_9ByteOrderENS_6TypeIdE
libexiv2.so.14:_ZN5Exiv29DataValueC2ENS_6TypeIdE
libexiv2.so.14:_ZN5Exiv29DataValueC2EPKhlNS_9ByteOrderENS_6TypeIdE
libexiv2.so.14:_ZN5Exiv29DataValueD0Ev
libexiv2.so.14:_ZN5Exiv29DataValueD1Ev
libexiv2.so.14:_ZN5Exiv29DataValueD2Ev
libexiv2.so.14:_ZN5Exiv29DateValue4readEPKhlNS_9ByteOrderE
libexiv2.so.14:_ZN5Exiv29DateValue4readERKNSt7__cxx1112basic_stringIcSt11char_traitsIcESaIcEEE
libexiv2.so.14:_ZN5Exiv29DateValue7setDateERKNS0_4DateE
libexiv2.so.14:_ZN5Exiv29DateValueC1Eiii
libexiv2.so.14:_ZN5Exiv29DateValueC1Ev
libexiv2.so.14:_ZN5Exiv29DateValueC2Eiii
libexiv2.so.14:_ZN5Exiv29DateValueC2Ev
libexiv2.so.14:_ZN5Exiv29DateValueD0Ev
libexiv2.so.14:_ZN5Exiv29DateValueD1Ev
libexiv2.so.14:_ZN5Exiv29DateValueD2Ev
libexiv2.so.14:_ZN5Exiv29ExifThumb16setJpegThumbnailEPKhl
libexiv2.so.14:_ZN5Exiv29ExifThumb16setJpegThumbnailEPKhlSt4pairIjjES4_t
libexiv2.so.14:_ZN5Exiv29ExifThumb16setJpegThumbnailERKNSt7__cxx1112basic_stringIcSt11char_traitsIcESaIcEEE
libexiv2.so.14:_ZN5Exiv29ExifThumb16setJpegThumbnailERKNSt7__cxx1112basic_stringIcSt11char_traitsIcESaIcEEESt4pairIjjESA_t
libexiv2.so.14:_ZN5Exiv29ExifThumb5eraseEv
libexiv2.so.14:_ZN5Exiv29ExifThumbC1ERNS_8ExifDataE
libexiv2.so.14:_ZN5Exiv29ExifThumbC2ERNS_8ExifDataE
libexiv2.so.14:_ZN5Exiv29Exifdatum11setDataAreaEPKhl
libexiv2.so.14:_ZN5Exiv29Exifdatum8setValueEPKNS_5ValueE
libexiv2.so.14:_ZN5Exiv29Exifdatum8setValueERKNSt7__cxx1112basic_stringIcSt11char_traitsIcESaIcEEE
libexiv2.so.14:_ZN5Exiv29ExifdatumC1ERKNS_7ExifKeyEPKNS_5ValueE
libexiv2.so.14:_ZN5Exiv29ExifdatumC1ERKS0_
libexiv2.so.14:_ZN5Exiv29ExifdatumC2ERKNS_7ExifKeyEPKNS_5ValueE
libexiv2.so.14:_ZN5Exiv29ExifdatumC2ERKS0_
libexiv2.so.14:_ZN5Exiv29ExifdatumD0Ev
libexiv2.so.14:_ZN5Exiv29ExifdatumD1Ev
libexiv2.so.14:_ZN5Exiv29ExifdatumD2Ev
libexiv2.so.14:_ZN5Exiv29ExifdatumaSERKNS_5ValueE
libexiv2.so.14:_ZN5Exiv29ExifdatumaSERKNSt7__cxx1112basic_stringIcSt11char_traitsIcESaIcEEE
libexiv2.so.14:_ZN5Exiv29ExifdatumaSERKS0_
libexiv2.so.14:_ZN5Exiv29ExifdatumaSERKSt4pairIiiE
libexiv2.so.14:_ZN5Exiv29ExifdatumaSERKSt4pairIjjE
libexiv2.so.14:_ZN5Exiv29ExifdatumaSERKi
libexiv2.so.14:_ZN5Exiv29ExifdatumaSERKj
libexiv2.so.14:_ZN5Exiv29ExifdatumaSERKs
libexiv2.so.14:_ZN5Exiv29ExifdatumaSERKt
libexiv2.so.14:_ZN5Exiv29GroupInfo9GroupNameC1ERKNSt7__cxx1112basic_stringIcSt11char_traitsIcESaIcEEE
libexiv2.so.14:_ZN5Exiv29GroupInfo9GroupNameC2ERKNSt7__cxx1112basic_stringIcSt11char_traitsIcESaIcEEE
libexiv2.so.14:_ZN5Exiv29Iptcdatum8setValueEPKNS_5ValueE
libexiv2.so.14:_ZN5Exiv29Iptcdatum8setValueERKNSt7__cxx1112basic_stringIcSt11char_traitsIcESaIcEEE
libexiv2.so.14:_ZN5Exiv29IptcdatumC1ERKNS_7IptcKeyEPKNS_5ValueE
libexiv2.so.14:_ZN5Exiv29IptcdatumC1ERKS0_
libexiv2.so.14:_ZN5Exiv29IptcdatumC2ERKNS_7IptcKeyEPKNS_5ValueE
libexiv2.so.14:_ZN5Exiv29IptcdatumC2ERKS0_
libexiv2.so.14:_ZN5Exiv29IptcdatumD0Ev
libexiv2.so.14:_ZN5Exiv29IptcdatumD1Ev
libexiv2.so.14:_ZN5Exiv29IptcdatumD2Ev
libexiv2.so.14:_ZN5Exiv29IptcdatumaSERKNS_5ValueE
libexiv2.so.14:_ZN5Exiv29IptcdatumaSERKNSt7__cxx1112basic_stringIcSt11char_traitsIcESaIcEEE
libexiv2.so.14:_ZN5Exiv29IptcdatumaSERKS0_
libexiv2.so.14:_ZN5Exiv29IptcdatumaSERKt
libexiv2.so.14:_ZN5Exiv29JpegImageC1ESt8auto_ptrINS_7BasicIoEEb
libexiv2.so.14:_ZN5Exiv29JpegImageC2ESt8auto_ptrINS_7BasicIoEEb
libexiv2.so.14:_ZN5Exiv29MetadatumC1ERKS0_
libexiv2.so.14:_ZN5Exiv29MetadatumC1Ev
libexiv2.so.14:_ZN5Exiv29MetadatumC2ERKS0_
libexiv2.so.14:_ZN5Exiv29MetadatumC2Ev
libexiv2.so.14:_ZN5Exiv29MetadatumD0Ev
libexiv2.so.14:_ZN5Exiv29MetadatumD1Ev
libexiv2.so.14:_ZN5Exiv29MetadatumD2Ev
libexiv2.so.14:_ZN5Exiv29MetadatumaSERKS0_
libexiv2.so.14:_ZN5Exiv29OrfParser6decodeERNS_8ExifDataERNS_8IptcDataERNS_7XmpDataEPKhj
libexiv2.so.14:_ZN5Exiv29OrfParser6encodeERNS_7BasicIoEPKhjNS_9ByteOrderERKNS_8ExifDataERKNS_8IptcDataERKNS_7XmpDataE
libexiv2.so.14:_ZN5Exiv29Photoshop10setIptcIrbEPKhlRKNS_8IptcDataE
libexiv2.so.14:_ZN5Exiv29Photoshop13locateIptcIrbEPKhlPS2_PjS4_
libexiv2.so.14:_ZN5Exiv29Photoshop16locatePreviewIrbEPKhlPS2_PjS4_
libexiv2.so.14:_ZN5Exiv29Photoshop5isIrbEPKhl
libexiv2.so.14:_ZN5Exiv29Photoshop5validEPKhl
libexiv2.so.14:_ZN5Exiv29Photoshop9locateIrbEPKhltPS2_PjS4_
libexiv2.so.14:_ZN5Exiv29Rw2Parser6decodeERNS_8ExifDataERNS_8IptcDataERNS_7XmpDataEPKhj
libexiv2.so.14:_ZN5Exiv29TiffImage10setCommentERKNSt7__cxx1112basic_stringIcSt11char_traitsIcESaIcEEE
libexiv2.so.14:_ZN5Exiv29TiffImage12readMetadataEv
libexiv2.so.14:_ZN5Exiv29TiffImage13writeMetadataEv
libexiv2.so.14:_ZN5Exiv29TiffImage14printStructureERSoNS_20PrintStructureOptionE
libexiv2.so.14:_ZN5Exiv29TiffImageC1ESt8auto_ptrINS_7BasicIoEEb
libexiv2.so.14:_ZN5Exiv29TiffImageC2ESt8auto_ptrINS_7BasicIoEEb
libexiv2.so.14:_ZN5Exiv29TimeValue4readEPKhlNS_9ByteOrderE
libexiv2.so.14:_ZN5Exiv29TimeValue4readERKNSt7__cxx1112basic_stringIcSt11char_traitsIcESaIcEEE
libexiv2.so.14:_ZN5Exiv29TimeValue7setTimeERKNS0_4TimeE
libexiv2.so.14:_ZN5Exiv29TimeValue9scanTime3EPKcS2_
libexiv2.so.14:_ZN5Exiv29TimeValue9scanTime6EPKcS2_
libexiv2.so.14:_ZN5Exiv29TimeValueC1Eiiiii
libexiv2.so.14:_ZN5Exiv29TimeValueC1Ev
libexiv2.so.14:_ZN5Exiv29TimeValueC2Eiiiii
libexiv2.so.14:_ZN5Exiv29TimeValueC2Ev
libexiv2.so.14:_ZN5Exiv29TimeValueD0Ev
libexiv2.so.14:_ZN5Exiv29TimeValueD1Ev
libexiv2.so.14:_ZN5Exiv29TimeValueD2Ev
libexiv2.so.14:_ZN5Exiv29XmpNsInfo2NsC1ERKNSt7__cxx1112basic_stringIcSt11char_traitsIcESaIcEEE
libexiv2.so.14:_ZN5Exiv29XmpNsInfo2NsC2ERKNSt7__cxx1112basic_stringIcSt11char_traitsIcESaIcEEE
libexiv2.so.14:_ZN5Exiv29XmpNsInfo6PrefixC1ERKNSt7__cxx1112basic_stringIcSt11char_traitsIcESaIcEEE
libexiv2.so.14:_ZN5Exiv29XmpNsInfo6PrefixC2ERKNSt7__cxx1112basic_stringIcSt11char_traitsIcESaIcEEE
libexiv2.so.14:_ZN5Exiv29XmpParser10initializeEPFvPvbES1_
libexiv2.so.14:_ZN5Exiv29XmpParser10registerNsERKNSt7__cxx1112basic_stringIcSt11char_traitsIcESaIcEEES8_
libexiv2.so.14:_ZN5Exiv29XmpParser12unregisterNsERKNSt7__cxx1112basic_stringIcSt11char_traitsIcESaIcEEE
libexiv2.so.14:_ZN5Exiv29XmpParser6decodeERNS_7XmpDataERKNSt7__cxx1112basic_stringIcSt11char_traitsIcESaIcEEE
libexiv2.so.14:_ZN5Exiv29XmpParser6encodeERNSt7__cxx1112basic_stringIcSt11char_traitsIcESaIcEEERKNS_7XmpDataEtj
libexiv2.so.14:_ZN5Exiv29XmpParser9terminateEv
libexiv2.so.14:_ZN5Exiv29flashBiasERKNS_8ExifDataE
libexiv2.so.14:_ZN5Exiv29getDoubleEPKhNS_9ByteOrderE
libexiv2.so.14:_ZN5Exiv29getUShortEPKhNS_9ByteOrderE
libexiv2.so.14:_ZN5Exiv29isBmpTypeERNS_7BasicIoEb
libexiv2.so.14:_ZN5Exiv29isCr2TypeERNS_7BasicIoEb
libexiv2.so.14:_ZN5Exiv29isCrwTypeERNS_7BasicIoEb
libexiv2.so.14:_ZN5Exiv29isEpsTypeERNS_7BasicIoEb
libexiv2.so.14:_ZN5Exiv29isExvTypeERNS_7BasicIoEb
libexiv2.so.14:_ZN5Exiv29isGifTypeERNS_7BasicIoEb
libexiv2.so.14:_ZN5Exiv29isJp2TypeERNS_7BasicIoEb
libexiv2.so.14:_ZN5Exiv29isMrwTypeERNS_7BasicIoEb
libexiv2.so.14:_ZN5Exiv29isOrfTypeERNS_7BasicIoEb
libexiv2.so.14:_ZN5Exiv29isPgfTypeERNS_7BasicIoEb
libexiv2.so.14:_ZN5Exiv29isPngTypeERNS_7BasicIoEb
libexiv2.so.14:_ZN5Exiv29isPsdTypeERNS_7BasicIoEb
libexiv2.so.14:_ZN5Exiv29isRafTypeERNS_7BasicIoEb
libexiv2.so.14:_ZN5Exiv29isRw2TypeERNS_7BasicIoEb
libexiv2.so.14:_ZN5Exiv29isTgaTypeERNS_7BasicIoEb
libexiv2.so.14:_ZN5Exiv29isXmpTypeERNS_7BasicIoEb
libexiv2.so.14:_ZN5Exiv29macroModeERKNS_8ExifDataE
libexiv2.so.14:_ZN5Exiv29parseLongERKNSt7__cxx1112basic_stringIcSt11char_traitsIcESaIcEEERb
libexiv2.so.14:_ZN5Exiv29sceneModeERKNS_8ExifDataE
libexiv2.so.14:_ZN5Exiv29sharpnessERKNS_8ExifDataE
libexiv2.so.14:_ZN5Exiv29urldecodeEPKc
libexiv2.so.14:_ZN5Exiv29urldecodeERNSt7__cxx1112basic_stringIcSt11char_traitsIcESaIcEEE
libexiv2.so.14:_ZN5Exiv29urlencodeEPc
libexiv2.so.14:_ZN5Exiv29writeFileERKNS_7DataBufERKNSt7__cxx1112basic_stringIcSt11char_traitsIcESaIcEEE
libexiv2.so.14:_ZN5Exiv2lsERSoRKNS_15XmpPropertyInfoE
libexiv2.so.14:_ZN5Exiv2lsERSoRKNS_7DataSetE
libexiv2.so.14:_ZN5Exiv2lsERSoRKNS_7TagInfoE
libexiv2.so.14:_ZN5Exiv2lsERSoRKSt4pairIiiE
libexiv2.so.14:_ZN5Exiv2lsERSoRKSt4pairIjjE
libexiv2.so.14:_ZN5Exiv2rsERSiRSt4pairIiiE
libexiv2.so.14:_ZN5Exiv2rsERSiRSt4pairIjjE
libexiv2.so.14:_ZN7XMPMeta10InitializeEv
libexiv2.so.14:_ZN7XMPMeta11DeleteAliasEPKcS1_
libexiv2.so.14:_ZN7XMPMeta11DumpAliasesEPFlPvPKcmES0_
libexiv2.so.14:_ZN7XMPMeta11SetPropertyEPKcS1_S1_m
libexiv2.so.14:_ZN7XMPMeta12ResolveAliasEPKcS1_PS1_PmS2_S3_S3_
libexiv2.so.14:_ZN7XMPMeta12SetArrayItemEPKcS1_lS1_m
libexiv2.so.14:_ZN7XMPMeta12SetQualifierEPKcS1_S1_S1_S1_m
libexiv2.so.14:_ZN7XMPMeta13RegisterAliasEPKcS1_S1_S1_m
libexiv2.so.14:_ZN7XMPMeta13SetObjectNameEPKc
libexiv2.so.14:_ZN7XMPMeta14DeletePropertyEPKcS1_
libexiv2.so.14:_ZN7XMPMeta14DumpNamespacesEPFlPvPKcmES0_
libexiv2.so.14:_ZN7XMPMeta14GetVersionInfoEP15XMP_VersionInfo
libexiv2.so.14:_ZN7XMPMeta14SetStructFieldEPKcS1_S1_S1_S1_m
libexiv2.so.14:_ZN7XMPMeta15AppendArrayItemEPKcS1_mS1_m
libexiv2.so.14:_ZN7XMPMeta15DeleteArrayItemEPKcS1_l
libexiv2.so.14:_ZN7XMPMeta15DeleteNamespaceEPKc
libexiv2.so.14:_ZN7XMPMeta15DeleteQualifierEPKcS1_S1_S1_
libexiv2.so.14:_ZN7XMPMeta15GetNamespaceURIEPKcPS1_Pm
libexiv2.so.14:_ZN7XMPMeta15ParseFromBufferEPKcmm
libexiv2.so.14:_ZN7XMPMeta15SetProperty_IntEPKcS1_lm
libexiv2.so.14:_ZN7XMPMeta16GetGlobalOptionsEv
libexiv2.so.14:_ZN7XMPMeta16SetGlobalOptionsEm
libexiv2.so.14:_ZN7XMPMeta16SetLocalizedTextEPKcS1_S1_S1_S1_m
libexiv2.so.14:_ZN7XMPMeta16SetObjectOptionsEm
libexiv2.so.14:_ZN7XMPMeta16SetProperty_BoolEPKcS1_bm
libexiv2.so.14:_ZN7XMPMeta16SetProperty_DateEPKcS1_RK12XMP_DateTimem
libexiv2.so.14:_ZN7XMPMeta17DeleteStructFieldEPKcS1_S1_S1_
libexiv2.so.14:_ZN7XMPMeta17RegisterNamespaceEPKcS1_
libexiv2.so.14:_ZN7XMPMeta17SetProperty_FloatEPKcS1_dm
libexiv2.so.14:_ZN7XMPMeta17SetProperty_Int64EPKcS1_xm
libexiv2.so.14:_ZN7XMPMeta18GetNamespacePrefixEPKcPS1_Pm
libexiv2.so.14:_ZN7XMPMeta23RegisterStandardAliasesEPKc
libexiv2.so.14:_ZN7XMPMeta4SortEv
libexiv2.so.14:_ZN7XMPMeta5EraseEv
libexiv2.so.14:_ZN7XMPMeta6UnlockEm
libexiv2.so.14:_ZN7XMPMeta9TerminateEv
libexiv2.so.14:_ZN7XMPMetaC1Ev
libexiv2.so.14:_ZN7XMPMetaC2Ev
libexiv2.so.14:_ZN7XMPMetaD0Ev
libexiv2.so.14:_ZN7XMPMetaD1Ev
libexiv2.so.14:_ZN7XMPMetaD2Ev
libexiv2.so.14:_ZN8XML_Node11RemoveAttrsEv
libexiv2.so.14:_ZN8XML_Node12SetAttrValueEPKcS1_
libexiv2.so.14:_ZN8XML_Node13RemoveContentEv
libexiv2.so.14:_ZN8XML_Node15GetNamedElementEPKcS1_m
libexiv2.so.14:_ZN8XML_Node19SetLeafContentValueEPKc
libexiv2.so.14:_ZN8XML_Node4DumpEPNSt7__cxx1112basic_stringIcSt11char_traitsIcESaIcEEE
libexiv2.so.14:_ZN8XML_Node9ClearNodeEv
libexiv2.so.14:_ZN8XML_Node9SerializeEPNSt7__cxx1112basic_stringIcSt11char_traitsIcESaIcEEE
libexiv2.so.14:_ZN8XMPUtils10InitializeEv
libexiv2.so.14:_ZN8XMPUtils11SetTimeZoneEP12XMP_DateTime
libexiv2.so.14:_ZN8XMPUtils12ConvertToIntEPKc
libexiv2.so.14:_ZN8XMPUtils13ConvertToBoolEPKc
libexiv2.so.14:_ZN8XMPUtils13ConvertToDateEPKcP12XMP_DateTime
libexiv2.so.14:_ZN8XMPUtils13MergeFromJPEGEP7XMPMetaRKS0_
libexiv2.so.14:_ZN8XMPUtils14ConvertFromIntElPKcPS1_Pm
libexiv2.so.14:_ZN8XMPUtils14ConvertToFloatEPKc
libexiv2.so.14:_ZN8XMPUtils14ConvertToInt64EPKc
libexiv2.so.14:_ZN8XMPUtils14EncodeToBase64EPKcmPS1_Pm
libexiv2.so.14:_ZN8XMPUtils14PackageForJPEGERK7XMPMetaPPKcPmS5_S6_S5_S6_
libexiv2.so.14:_ZN8XMPUtils15CompareDateTimeERK12XMP_DateTimeS2_
libexiv2.so.14:_ZN8XMPUtils15ConvertFromBoolEbPPKcPm
libexiv2.so.14:_ZN8XMPUtils15ConvertFromDateERK12XMP_DateTimePPKcPm
libexiv2.so.14:_ZN8XMPUtils15CurrentDateTimeEP12XMP_DateTime
libexiv2.so.14:_ZN8XMPUtils16AppendPropertiesERK7XMPMetaPS0_m
libexiv2.so.14:_ZN8XMPUtils16ConvertFromFloatEdPKcPS1_Pm
libexiv2.so.14:_ZN8XMPUtils16ConvertFromInt64ExPKcPS1_Pm
libexiv2.so.14:_ZN8XMPUtils16ConvertToUTCTimeEP12XMP_DateTime
libexiv2.so.14:_ZN8XMPUtils16DecodeFromBase64EPKcmPS1_Pm
libexiv2.so.14:_ZN8XMPUtils16DuplicateSubtreeERK7XMPMetaPS0_PKcS5_S5_S5_m
libexiv2.so.14:_ZN8XMPUtils16RemovePropertiesEP7XMPMetaPKcS3_m
libexiv2.so.14:_ZN8XMPUtils18CatenateArrayItemsERK7XMPMetaPKcS4_S4_S4_mPS4_Pm
libexiv2.so.14:_ZN8XMPUtils18ConvertToLocalTimeEP12XMP_DateTime
libexiv2.so.14:_ZN8XMPUtils18SeparateArrayItemsEP7XMPMetaPKcS3_mS3_
libexiv2.so.14:_ZN8XMPUtils19ComposeLangSelectorEPKcS1_S1_PS1_Pm
libexiv2.so.14:_ZN8XMPUtils20ComposeArrayItemPathEPKcS1_lPS1_Pm
libexiv2.so.14:_ZN8XMPUtils20ComposeFieldSelectorEPKcS1_S1_S1_S1_PS1_Pm
libexiv2.so.14:_ZN8XMPUtils20ComposeQualifierPathEPKcS1_S1_S1_PS1_Pm
libexiv2.so.14:_ZN8XMPUtils22ComposeStructFieldPathEPKcS1_S1_S1_PS1_Pm
libexiv2.so.14:_ZN8XMPUtils6UnlockEm
libexiv2.so.14:_ZN8XMPUtils9TerminateEv
libexiv2.so.14:_ZNK5Exiv210AsciiValue5writeERSo
libexiv2.so.14:_ZNK5Exiv210AsciiValue6clone_Ev
libexiv2.so.14:_ZNK5Exiv210ExifThumbC4copyEv
libexiv2.so.14:_ZNK5Exiv210ExifThumbC8mimeTypeEv
libexiv2.so.14:_ZNK5Exiv210ExifThumbC9extensionEv
libexiv2.so.14:_ZNK5Exiv210ExifThumbC9writeFileERKNSt7__cxx1112basic_stringIcSt11char_traitsIcESaIcEEE
libexiv2.so.14:_ZNK5Exiv210XmpSidecar8mimeTypeB5cxx11Ev
libexiv2.so.14:_ZNK5Exiv211StringValue6clone_Ev
libexiv2.so.14:_ZNK5Exiv212CommentValue13detectCharsetERNSt7__cxx1112basic_stringIcSt11char_traitsIcESaIcEEE
libexiv2.so.14:_ZNK5Exiv212CommentValue4copyEPhNS_9ByteOrderE
libexiv2.so.14:_ZNK5Exiv212CommentValue5writeERSo
libexiv2.so.14:_ZNK5Exiv212CommentValue6clone_Ev
libexiv2.so.14:_ZNK5Exiv212CommentValue7commentB5cxx11EPKc
libexiv2.so.14:_ZNK5Exiv212CommentValue9charsetIdEv
libexiv2.so.14:_ZNK5Exiv212LangAltValue10toRationalEl
libexiv2.so.14:_ZNK5Exiv212LangAltValue5cloneEv
libexiv2.so.14:_ZNK5Exiv212LangAltValue5countEv
libexiv2.so.14:_ZNK5Exiv212LangAltValue5writeERSo
libexiv2.so.14:_ZNK5Exiv212LangAltValue6clone_Ev
libexiv2.so.14:_ZNK5Exiv212LangAltValue6toLongEl
libexiv2.so.14:_ZNK5Exiv212LangAltValue7toFloatEl
libexiv2.so.14:_ZNK5Exiv212LangAltValue8toStringB5cxx11El
libexiv2.so.14:_ZNK5Exiv212LangAltValue8toStringERKNSt7__cxx1112basic_stringIcSt11char_traitsIcESaIcEEE
libexiv2.so.14:_ZNK5Exiv212PreviewImage2idEv
libexiv2.so.14:_ZNK5Exiv212PreviewImage4copyEv
libexiv2.so.14:_ZNK5Exiv212PreviewImage4sizeEv
libexiv2.so.14:_ZNK5Exiv212PreviewImage5pDataEv
libexiv2.so.14:_ZNK5Exiv212PreviewImage5widthEv
libexiv2.so.14:_ZNK5Exiv212PreviewImage6heightEv
libexiv2.so.14:_ZNK5Exiv212PreviewImage8mimeTypeB5cxx11Ev
libexiv2.so.14:_ZNK5Exiv212PreviewImage9extensionB5cxx11Ev
libexiv2.so.14:_ZNK5Exiv212PreviewImage9writeFileERKNSt7__cxx1112basic_stringIcSt11char_traitsIcESaIcEEE
libexiv2.so.14:_ZNK5Exiv212XmpTextValue10toRationalEl
libexiv2.so.14:_ZNK5Exiv212XmpTextValue4sizeEv
libexiv2.so.14:_ZNK5Exiv212XmpTextValue5cloneEv
libexiv2.so.14:_ZNK5Exiv212XmpTextValue5countEv
libexiv2.so.14:_ZNK5Exiv212XmpTextValue5writeERSo
libexiv2.so.14:_ZNK5Exiv212XmpTextValue6clone_Ev
libexiv2.so.14:_ZNK5Exiv212XmpTextValue6toLongEl
libexiv2.so.14:_ZNK5Exiv212XmpTextValue7toFloatEl
libexiv2.so.14:_ZNK5Exiv213XmpArrayValue10toRationalEl
libexiv2.so.14:_ZNK5Exiv213XmpArrayValue5cloneEv
libexiv2.so.14:_ZNK5Exiv213XmpArrayValue5countEv
libexiv2.so.14:_ZNK5Exiv213XmpArrayValue5writeERSo
libexiv2.so.14:_ZNK5Exiv213XmpArrayValue6clone_Ev
libexiv2.so.14:_ZNK5Exiv213XmpArrayValue6toLongEl
libexiv2.so.14:_ZNK5Exiv213XmpArrayValue7toFloatEl
libexiv2.so.14:_ZNK5Exiv213XmpArrayValue8toStringB5cxx11El
libexiv2.so.14:_ZNK5Exiv214PreviewManager15getPreviewImageERKNS_17PreviewPropertiesE
libexiv2.so.14:_ZNK5Exiv214PreviewManager20getPreviewPropertiesEv
libexiv2.so.14:_ZNK5Exiv215StringValueBase10toRationalEl
libexiv2.so.14:_ZNK5Exiv215StringValueBase4copyEPhNS_9ByteOrderE
libexiv2.so.14:_ZNK5Exiv215StringValueBase4sizeEv
libexiv2.so.14:_ZNK5Exiv215StringValueBase5countEv
libexiv2.so.14:_ZNK5Exiv215StringValueBase5writeERSo
libexiv2.so.14:_ZNK5Exiv215StringValueBase6toLongEl
libexiv2.so.14:_ZNK5Exiv215StringValueBase7toFloatEl
libexiv2.so.14:_ZNK5Exiv215XmpPropertyInfoeqERKNSt7__cxx1112basic_stringIcSt11char_traitsIcESaIcEEE
libexiv2.so.14:_ZNK5Exiv23Key5cloneEv
libexiv2.so.14:_ZNK5Exiv25Image10pixelWidthEv
libexiv2.so.14:_ZNK5Exiv25Image11pixelHeightEv
libexiv2.so.14:_ZNK5Exiv25Image14nativePreviewsEv
libexiv2.so.14:_ZNK5Exiv25Image16supportsMetadataENS_10MetadataIdE
libexiv2.so.14:_ZNK5Exiv25Image18writeXmpFromPacketEv
libexiv2.so.14:_ZNK5Exiv25Image2ioEv
libexiv2.so.14:_ZNK5Exiv25Image4goodEv
libexiv2.so.14:_ZNK5Exiv25Image7commentB5cxx11Ev
libexiv2.so.14:_ZNK5Exiv25Image7xmpDataEv
libexiv2.so.14:_ZNK5Exiv25Image8exifDataEv
libexiv2.so.14:_ZNK5Exiv25Image8iptcDataEv
libexiv2.so.14:_ZNK5Exiv25Image9byteOrderEv
libexiv2.so.14:_ZNK5Exiv25Image9checkModeENS_10MetadataIdE
libexiv2.so.14:_ZNK5Exiv25Image9xmpPacketB5cxx11Ev
libexiv2.so.14:_ZNK5Exiv25MemIo3eofEv
libexiv2.so.14:_ZNK5Exiv25MemIo4pathB5cxx11Ev
libexiv2.so.14:_ZNK5Exiv25MemIo4sizeEv
libexiv2.so.14:_ZNK5Exiv25MemIo4tellEv
libexiv2.so.14:_ZNK5Exiv25MemIo5errorEv
libexiv2.so.14:_ZNK5Exiv25MemIo6isopenEv
libexiv2.so.14:_ZNK5Exiv25MemIo9temporaryEv
libexiv2.so.14:_ZNK5Exiv25Value12sizeDataAreaEv
libexiv2.so.14:_ZNK5Exiv25Value8dataAreaEv
libexiv2.so.14:_ZNK5Exiv25Value8toStringB5cxx11El
libexiv2.so.14:_ZNK5Exiv25Value8toStringB5cxx11Ev
libexiv2.so.14:_ZNK5Exiv26FileIo3eofEv
libexiv2.so.14:_ZNK5Exiv26FileIo4Impl4statERNS1_10StructStatE
libexiv2.so.14:_ZNK5Exiv26FileIo4pathB5cxx11Ev
libexiv2.so.14:_ZNK5Exiv26FileIo4sizeEv
libexiv2.so.14:_ZNK5Exiv26FileIo4tellEv
libexiv2.so.14:_ZNK5Exiv26FileIo5errorEv
libexiv2.so.14:_ZNK5Exiv26FileIo6isopenEv
libexiv2.so.14:_ZNK5Exiv26FileIo9temporaryEv
libexiv2.so.14:_ZNK5Exiv26XmpKey10familyNameEv
libexiv2.so.14:_ZNK5Exiv26XmpKey2nsB5cxx11Ev
libexiv2.so.14:_ZNK5Exiv26XmpKey3keyB5cxx11Ev
libexiv2.so.14:_ZNK5Exiv26XmpKey3tagEv
libexiv2.so.14:_ZNK5Exiv26XmpKey5cloneEv
libexiv2.so.14:_ZNK5Exiv26XmpKey6clone_Ev
libexiv2.so.14:_ZNK5Exiv26XmpKey7tagNameB5cxx11Ev
libexiv2.so.14:_ZNK5Exiv26XmpKey8tagLabelB5cxx11Ev
libexiv2.so.14:_ZNK5Exiv26XmpKey9groupNameB5cxx11Ev
libexiv2.so.14:_ZNK5Exiv27ExifKey10familyNameEv
libexiv2.so.14:_ZNK5Exiv27ExifKey13defaultTypeIdEv
libexiv2.so.14:_ZNK5Exiv27ExifKey3idxEv
libexiv2.so.14:_ZNK5Exiv27ExifKey3keyB5cxx11Ev
libexiv2.so.14:_ZNK5Exiv27ExifKey3tagEv
libexiv2.so.14:_ZNK5Exiv27ExifKey4Impl7tagNameB5cxx11Ev
libexiv2.so.14:_ZNK5Exiv27ExifKey5cloneEv
libexiv2.so.14:_ZNK5Exiv27ExifKey5ifdIdEv
libexiv2.so.14:_ZNK5Exiv27ExifKey6clone_Ev
libexiv2.so.14:_ZNK5Exiv27ExifKey7tagDescB5cxx11Ev
libexiv2.so.14:_ZNK5Exiv27ExifKey7tagNameB5cxx11Ev
libexiv2.so.14:_ZNK5Exiv27ExifKey8tagLabelB5cxx11Ev
libexiv2.so.14:_ZNK5Exiv27ExifKey9groupNameB5cxx11Ev
libexiv2.so.14:_ZNK5Exiv27IptcKey10familyNameEv
libexiv2.so.14:_ZNK5Exiv27IptcKey10recordNameB5cxx11Ev
libexiv2.so.14:_ZNK5Exiv27IptcKey3keyB5cxx11Ev
libexiv2.so.14:_ZNK5Exiv27IptcKey3tagEv
libexiv2.so.14:_ZNK5Exiv27IptcKey5cloneEv
libexiv2.so.14:_ZNK5Exiv27IptcKey6clone_Ev
libexiv2.so.14:_ZNK5Exiv27IptcKey6recordEv
libexiv2.so.14:_ZNK5Exiv27IptcKey7tagNameB5cxx11Ev
libexiv2.so.14:_ZNK5Exiv27IptcKey8tagLabelB5cxx11Ev
libexiv2.so.14:_ZNK5Exiv27IptcKey9groupNameB5cxx11Ev
libexiv2.so.14:_ZNK5Exiv27XmpData3endEv
libexiv2.so.14:_ZNK5Exiv27XmpData5beginEv
libexiv2.so.14:_ZNK5Exiv27XmpData5countEv
libexiv2.so.14:_ZNK5Exiv27XmpData5emptyEv
libexiv2.so.14:_ZNK5Exiv27XmpData7findKeyERKNS_6XmpKeyE
libexiv2.so.14:_ZNK5Exiv28BmpImage8mimeTypeB5cxx11Ev
libexiv2.so.14:_ZNK5Exiv28Cr2Image10pixelWidthEv
libexiv2.so.14:_ZNK5Exiv28Cr2Image11pixelHeightEv
libexiv2.so.14:_ZNK5Exiv28Cr2Image8mimeTypeB5cxx11Ev
libexiv2.so.14:_ZNK5Exiv28CrwImage10pixelWidthEv
libexiv2.so.14:_ZNK5Exiv28CrwImage11pixelHeightEv
libexiv2.so.14:_ZNK5Exiv28CrwImage8mimeTypeB5cxx11Ev
libexiv2.so.14:_ZNK5Exiv28EpsImage8mimeTypeB5cxx11Ev
libexiv2.so.14:_ZNK5Exiv28ExifData7findKeyERKNS_7ExifKeyE
libexiv2.so.14:_ZNK5Exiv28ExvImage10isThisTypeERNS_7BasicIoEb
libexiv2.so.14:_ZNK5Exiv28ExvImage11writeHeaderERNS_7BasicIoE
libexiv2.so.14:_ZNK5Exiv28ExvImage8mimeTypeB5cxx11Ev
libexiv2.so.14:_ZNK5Exiv28GifImage8mimeTypeB5cxx11Ev
libexiv2.so.14:_ZNK5Exiv28Internal10CiffHeader13findComponentEtt
libexiv2.so.14:_ZNK5Exiv28Internal10CiffHeader5printERSoRKNSt7__cxx1112basic_stringIcSt11char_traitsIcESaIcEEE
libexiv2.so.14:_ZNK5Exiv28Internal10CiffHeader5writeERSt6vectorIhSaIhEE
libexiv2.so.14:_ZNK5Exiv28Internal10CiffHeader6decodeERNS_5ImageE
libexiv2.so.14:_ZNK5Exiv28Internal10TiffHeader10isImageTagEtNS0_5IfdIdEPKSt6vectorIS2_SaIS2_EE
libexiv2.so.14:_ZNK5Exiv28Internal10TiffReader10baseOffsetEv
libexiv2.so.14:_ZNK5Exiv28Internal10TiffReader9byteOrderEv
libexiv2.so.14:_ZNK5Exiv28Internal10TiffSubIfd10doSizeDataEv
libexiv2.so.14:_ZNK5Exiv28Internal10TiffSubIfd11doSizeImageEv
libexiv2.so.14:_ZNK5Exiv28Internal10TiffSubIfd11doWriteDataERNS0_9IoWrapperENS_9ByteOrderEijRj
libexiv2.so.14:_ZNK5Exiv28Internal10TiffSubIfd12doWriteImageERNS0_9IoWrapperENS_9ByteOrderE
libexiv2.so.14:_ZNK5Exiv28Internal10TiffSubIfd6doSizeEv
libexiv2.so.14:_ZNK5Exiv28Internal10TiffSubIfd7doCloneEv
libexiv2.so.14:_ZNK5Exiv28Internal11TiffEncoder10isImageTagEtNS0_5IfdIdE
libexiv2.so.14:_ZNK5Exiv28Internal11TiffEncoder14updateDirEntryEPhNS_9ByteOrderEPNS0_13TiffComponentE
libexiv2.so.14:_ZNK5Exiv28Internal11TiffEncoder5dirtyEv
libexiv2.so.14:_ZNK5Exiv28Internal11TiffMnEntry6doSizeEv
libexiv2.so.14:_ZNK5Exiv28Internal11TiffMnEntry7doCloneEv
libexiv2.so.14:_ZNK5Exiv28Internal11TiffMnEntry7doCountEv
libexiv2.so.14:_ZNK5Exiv28Internal11TiffVisitor2goENS1_7GoEventE
libexiv2.so.14:_ZNK5Exiv28Internal12FujiMnHeader10baseOffsetEj
libexiv2.so.14:_ZNK5Exiv28Internal12FujiMnHeader4sizeEv
libexiv2.so.14:_ZNK5Exiv28Internal12FujiMnHeader5writeERNS0_9IoWrapperENS_9ByteOrderE
libexiv2.so.14:_ZNK5Exiv28Internal12FujiMnHeader9byteOrderEv
libexiv2.so.14:_ZNK5Exiv28Internal12FujiMnHeader9ifdOffsetEv
libexiv2.so.14:_ZNK5Exiv28Internal12OffsetWriter12writeOffsetsERNS_7BasicIoE
libexiv2.so.14:_ZNK5Exiv28Internal12SonyMnHeader4sizeEv
libexiv2.so.14:_ZNK5Exiv28Internal12SonyMnHeader5writeERNS0_9IoWrapperENS_9ByteOrderE
libexiv2.so.14:_ZNK5Exiv28Internal12SonyMnHeader9ifdOffsetEv
libexiv2.so.14:_ZNK5Exiv28Internal13CiffComponent13findComponentEtt
libexiv2.so.14:_ZNK5Exiv28Internal13CiffComponent13writeDirEntryERSt6vectorIhSaIhEENS_9ByteOrderE
libexiv2.so.14:_ZNK5Exiv28Internal13CiffComponent15doFindComponentEtt
libexiv2.so.14:_ZNK5Exiv28Internal13CiffComponent5emptyEv
libexiv2.so.14:_ZNK5Exiv28Internal13CiffComponent5printERSoNS_9ByteOrderERKNSt7__cxx1112basic_stringIcSt11char_traitsIcESaIcEEE
libexiv2.so.14:_ZNK5Exiv28Internal13CiffComponent6decodeERNS_5ImageENS_9ByteOrderE
libexiv2.so.14:_ZNK5Exiv28Internal13CiffComponent7doEmptyEv
libexiv2.so.14:_ZNK5Exiv28Internal13CiffComponent7doPrintERSoNS_9ByteOrderERKNSt7__cxx1112basic_stringIcSt11char_traitsIcESaIcEEE
libexiv2.so.14:_ZNK5Exiv28Internal13CiffDirectory15doFindComponentEtt
libexiv2.so.14:_ZNK5Exiv28Internal13CiffDirectory7doEmptyEv
libexiv2.so.14:_ZNK5Exiv28Internal13CiffDirectory7doPrintERSoNS_9ByteOrderERKNSt7__cxx1112basic_stringIcSt11char_traitsIcESaIcEEE
libexiv2.so.14:_ZNK5Exiv28Internal13CiffDirectory8doDecodeERNS_5ImageENS_9ByteOrderE
libexiv2.so.14:_ZNK5Exiv28Internal13SigmaMnHeader4sizeEv
libexiv2.so.14:_ZNK5Exiv28Internal13SigmaMnHeader5writeERNS0_9IoWrapperENS_9ByteOrderE
libexiv2.so.14:_ZNK5Exiv28Internal13SigmaMnHeader9ifdOffsetEv
libexiv2.so.14:_ZNK5Exiv28Internal13TagVocabularyeqERKNSt7__cxx1112basic_stringIcSt11char_traitsIcESaIcEEE
libexiv2.so.14:_ZNK5Exiv28Internal13TiffComponent10writeImageERNS0_9IoWrapperENS_9ByteOrderE
libexiv2.so.14:_ZNK5Exiv28Internal13TiffComponent3idxEv
libexiv2.so.14:_ZNK5Exiv28Internal13TiffComponent4sizeEv
libexiv2.so.14:_ZNK5Exiv28Internal13TiffComponent5cloneEv
libexiv2.so.14:_ZNK5Exiv28Internal13TiffComponent5countEv
libexiv2.so.14:_ZNK5Exiv28Internal13TiffComponent8sizeDataEv
libexiv2.so.14:_ZNK5Exiv28Internal13TiffComponent9sizeImageEv
libexiv2.so.14:_ZNK5Exiv28Internal13TiffComponent9writeDataERNS0_9IoWrapperENS_9ByteOrderEijRj
libexiv2.so.14:_ZNK5Exiv28Internal13TiffDataEntry10doSizeDataEv
libexiv2.so.14:_ZNK5Exiv28Internal13TiffDataEntry11doWriteDataERNS0_9IoWrapperENS_9ByteOrderEijRj
libexiv2.so.14:_ZNK5Exiv28Internal13TiffDataEntry7doCloneEv
libexiv2.so.14:_ZNK5Exiv28Internal13TiffDirectory10doSizeDataEv
libexiv2.so.14:_ZNK5Exiv28Internal13TiffDirectory11doSizeImageEv
libexiv2.so.14:_ZNK5Exiv28Internal13TiffDirectory11doWriteDataERNS0_9IoWrapperENS_9ByteOrderEijRj
libexiv2.so.14:_ZNK5Exiv28Internal13TiffDirectory12doWriteImageERNS0_9IoWrapperENS_9ByteOrderE
libexiv2.so.14:_ZNK5Exiv28Internal13TiffDirectory13writeDirEntryERNS0_9IoWrapperENS_9ByteOrderEiPNS0_13TiffComponentEjjRj
libexiv2.so.14:_ZNK5Exiv28Internal13TiffDirectory6doSizeEv
libexiv2.so.14:_ZNK5Exiv28Internal13TiffDirectory7doCloneEv
libexiv2.so.14:_ZNK5Exiv28Internal13TiffDirectory7doCountEv
libexiv2.so.14:_ZNK5Exiv28Internal13TiffEntryBase10doSizeDataEv
libexiv2.so.14:_ZNK5Exiv28Internal13TiffEntryBase11doSizeImageEv
libexiv2.so.14:_ZNK5Exiv28Internal13TiffEntryBase11doWriteDataERNS0_9IoWrapperENS_9ByteOrderEijRj
libexiv2.so.14:_ZNK5Exiv28Internal13TiffEntryBase12doWriteImageERNS0_9IoWrapperENS_9ByteOrderE
libexiv2.so.14:_ZNK5Exiv28Internal13TiffEntryBase3idxEv
libexiv2.so.14:_ZNK5Exiv28Internal13TiffEntryBase6doSizeEv
libexiv2.so.14:_ZNK5Exiv28Internal13TiffEntryBase7doCountEv
libexiv2.so.14:_ZNK5Exiv28Internal13TiffSizeEntry7doCloneEv
libexiv2.so.14:_ZNK5Exiv28Internal14Casio2MnHeader4sizeEv
libexiv2.so.14:_ZNK5Exiv28Internal14Casio2MnHeader5writeERNS0_9IoWrapperENS_9ByteOrderE
libexiv2.so.14:_ZNK5Exiv28Internal14Casio2MnHeader9byteOrderEv
libexiv2.so.14:_ZNK5Exiv28Internal14Casio2MnHeader9ifdOffsetEv
libexiv2.so.14:_ZNK5Exiv28Internal14Nikon2MnHeader4sizeEv
libexiv2.so.14:_ZNK5Exiv28Internal14Nikon2MnHeader5writeERNS0_9IoWrapperENS_9ByteOrderE
libexiv2.so.14:_ZNK5Exiv28Internal14Nikon2MnHeader9ifdOffsetEv
libexiv2.so.14:_ZNK5Exiv28Internal14Nikon3MnHeader10baseOffsetEj
libexiv2.so.14:_ZNK5Exiv28Internal14Nikon3MnHeader4sizeEv
libexiv2.so.14:_ZNK5Exiv28Internal14Nikon3MnHeader5writeERNS0_9IoWrapperENS_9ByteOrderE
libexiv2.so.14:_ZNK5Exiv28Internal14Nikon3MnHeader9byteOrderEv
libexiv2.so.14:_ZNK5Exiv28Internal14Nikon3MnHeader9ifdOffsetEv
libexiv2.so.14:_ZNK5Exiv28Internal14PentaxMnHeader4sizeEv
libexiv2.so.14:_ZNK5Exiv28Internal14PentaxMnHeader5writeERNS0_9IoWrapperENS_9ByteOrderE
libexiv2.so.14:_ZNK5Exiv28Internal14PentaxMnHeader9ifdOffsetEv
libexiv2.so.14:_ZNK5Exiv28Internal14TiffHeaderBase10isImageTagEtNS0_5IfdIdEPKSt6vectorIS2_SaIS2_EE
libexiv2.so.14:_ZNK5Exiv28Internal14TiffHeaderBase3tagEv
libexiv2.so.14:_ZNK5Exiv28Internal14TiffHeaderBase4sizeEv
libexiv2.so.14:_ZNK5Exiv28Internal14TiffHeaderBase5printERSoRKNSt7__cxx1112basic_stringIcSt11char_traitsIcESaIcEEE
libexiv2.so.14:_ZNK5Exiv28Internal14TiffHeaderBase5writeEv
libexiv2.so.14:_ZNK5Exiv28Internal14TiffHeaderBase6offsetEv
libexiv2.so.14:_ZNK5Exiv28Internal14TiffHeaderBase9byteOrderEv
libexiv2.so.14:_ZNK5Exiv28Internal14TiffImageEntry10doSizeDataEv
libexiv2.so.14:_ZNK5Exiv28Internal14TiffImageEntry11doSizeImageEv
libexiv2.so.14:_ZNK5Exiv28Internal14TiffImageEntry11doWriteDataERNS0_9IoWrapperENS_9ByteOrderEijRj
libexiv2.so.14:_ZNK5Exiv28Internal14TiffImageEntry12doWriteImageERNS0_9IoWrapperENS_9ByteOrderE
libexiv2.so.14:_ZNK5Exiv28Internal14TiffImageEntry6doSizeEv
libexiv2.so.14:_ZNK5Exiv28Internal14TiffImageEntry7doCloneEv
libexiv2.so.14:_ZNK5Exiv28Internal14TiffMnRegistryeqENS0_5IfdIdE
libexiv2.so.14:_ZNK5Exiv28Internal14TiffMnRegistryeqERKNSt7__cxx1112basic_stringIcSt11char_traitsIcESaIcEEE
libexiv2.so.14:_ZNK5Exiv28Internal14TiffTreeStructeqERKNS1_3KeyE
libexiv2.so.14:_ZNK5Exiv28Internal15OlympusMnHeader4sizeEv
libexiv2.so.14:_ZNK5Exiv28Internal15OlympusMnHeader5writeERNS0_9IoWrapperENS_9ByteOrderE
libexiv2.so.14:_ZNK5Exiv28Internal15OlympusMnHeader9ifdOffsetEv
libexiv2.so.14:_ZNK5Exiv28Internal15SamsungMnHeader10baseOffsetEj
libexiv2.so.14:_ZNK5Exiv28Internal15SamsungMnHeader4sizeEv
libexiv2.so.14:_ZNK5Exiv28Internal15SamsungMnHeader5writeERNS0_9IoWrapperENS_9ByteOrderE
libexiv2.so.14:_ZNK5Exiv28Internal15TiffBinaryArray6doSizeEv
libexiv2.so.14:_ZNK5Exiv28Internal15TiffBinaryArray7doCloneEv
libexiv2.so.14:_ZNK5Exiv28Internal15TiffBinaryArray7doCountEv
libexiv2.so.14:_ZNK5Exiv28Internal15TiffMappingInfoeqERKNS1_3KeyE
libexiv2.so.14:_ZNK5Exiv28Internal16Olympus2MnHeader10baseOffsetEj
libexiv2.so.14:_ZNK5Exiv28Internal16Olympus2MnHeader4sizeEv
libexiv2.so.14:_ZNK5Exiv28Internal16Olympus2MnHeader5writeERNS0_9IoWrapperENS_9ByteOrderE
libexiv2.so.14:_ZNK5Exiv28Internal16Olympus2MnHeader9ifdOffsetEv
libexiv2.so.14:_ZNK5Exiv28Internal16TiffIfdMakernote10baseOffsetEv
libexiv2.so.14:_ZNK5Exiv28Internal16TiffIfdMakernote10doSizeDataEv
libexiv2.so.14:_ZNK5Exiv28Internal16TiffIfdMakernote10sizeHeaderEv
libexiv2.so.14:_ZNK5Exiv28Internal16TiffIfdMakernote11doSizeImageEv
libexiv2.so.14:_ZNK5Exiv28Internal16TiffIfdMakernote11doWriteDataERNS0_9IoWrapperENS_9ByteOrderEijRj
libexiv2.so.14:_ZNK5Exiv28Internal16TiffIfdMakernote11writeHeaderERNS0_9IoWrapperENS_9ByteOrderE
libexiv2.so.14:_ZNK5Exiv28Internal16TiffIfdMakernote12doWriteImageERNS0_9IoWrapperENS_9ByteOrderE
libexiv2.so.14:_ZNK5Exiv28Internal16TiffIfdMakernote6doSizeEv
libexiv2.so.14:_ZNK5Exiv28Internal16TiffIfdMakernote7doCloneEv
libexiv2.so.14:_ZNK5Exiv28Internal16TiffIfdMakernote7doCountEv
libexiv2.so.14:_ZNK5Exiv28Internal16TiffIfdMakernote8mnOffsetEv
libexiv2.so.14:_ZNK5Exiv28Internal16TiffIfdMakernote9byteOrderEv
libexiv2.so.14:_ZNK5Exiv28Internal16TiffIfdMakernote9ifdOffsetEv
libexiv2.so.14:_ZNK5Exiv28Internal17PanasonicMnHeader4sizeEv
libexiv2.so.14:_ZNK5Exiv28Internal17PanasonicMnHeader5writeERNS0_9IoWrapperENS_9ByteOrderE
libexiv2.so.14:_ZNK5Exiv28Internal17PanasonicMnHeader9ifdOffsetEv
libexiv2.so.14:_ZNK5Exiv28Internal17PentaxDngMnHeader10baseOffsetEj
libexiv2.so.14:_ZNK5Exiv28Internal17PentaxDngMnHeader4sizeEv
libexiv2.so.14:_ZNK5Exiv28Internal17PentaxDngMnHeader5writeERNS0_9IoWrapperENS_9ByteOrderE
libexiv2.so.14:_ZNK5Exiv28Internal17PentaxDngMnHeader9ifdOffsetEv
libexiv2.so.14:_ZNK5Exiv28Internal17TiffBinaryElement6doSizeEv
libexiv2.so.14:_ZNK5Exiv28Internal17TiffBinaryElement7doCloneEv
libexiv2.so.14:_ZNK5Exiv28Internal17TiffBinaryElement7doCountEv
libexiv2.so.14:_ZNK5Exiv28Internal8ArrayDef4sizeEtNS0_5IfdIdE
libexiv2.so.14:_ZNK5Exiv28Internal8MnHeader10baseOffsetEj
libexiv2.so.14:_ZNK5Exiv28Internal8MnHeader9byteOrderEv
libexiv2.so.14:_ZNK5Exiv28Internal8MnHeader9ifdOffsetEv
libexiv2.so.14:_ZNK5Exiv28Internal9CiffEntry8doDecodeERNS_5ImageENS_9ByteOrderE
libexiv2.so.14:_ZNK5Exiv28Internal9Cr2Header10isImageTagEtNS0_5IfdIdEPKSt6vectorIS2_SaIS2_EE
libexiv2.so.14:_ZNK5Exiv28Internal9Cr2Header5writeEv
libexiv2.so.14:_ZNK5Exiv28Internal9OrfHeader5writeEv
libexiv2.so.14:_ZNK5Exiv28Internal9Rw2Header5writeEv
libexiv2.so.14:_ZNK5Exiv28Internal9TiffEntry7doCloneEv
libexiv2.so.14:_ZNK5Exiv28IptcData13detectCharsetEv
libexiv2.so.14:_ZNK5Exiv28IptcData4sizeEv
libexiv2.so.14:_ZNK5Exiv28IptcData6findIdEtt
libexiv2.so.14:_ZNK5Exiv28IptcData7findKeyERKNS_7IptcKeyE
libexiv2.so.14:_ZNK5Exiv28Jp2Image8mimeTypeB5cxx11Ev
libexiv2.so.14:_ZNK5Exiv28JpegBase15advanceToMarkerEv
libexiv2.so.14:_ZNK5Exiv28MrwImage10pixelWidthEv
libexiv2.so.14:_ZNK5Exiv28MrwImage11pixelHeightEv
libexiv2.so.14:_ZNK5Exiv28MrwImage8mimeTypeB5cxx11Ev
libexiv2.so.14:_ZNK5Exiv28OrfImage10pixelWidthEv
libexiv2.so.14:_ZNK5Exiv28OrfImage11pixelHeightEv
libexiv2.so.14:_ZNK5Exiv28OrfImage8mimeTypeB5cxx11Ev
libexiv2.so.14:_ZNK5Exiv28PngImage8mimeTypeB5cxx11Ev
libexiv2.so.14:_ZNK5Exiv28PsdImage12writeXmpDataERKNS_7XmpDataERNS_7BasicIoE
libexiv2.so.14:_ZNK5Exiv28PsdImage13writeIptcDataERKNS_8IptcDataERNS_7BasicIoE
libexiv2.so.14:_ZNK5Exiv28PsdImage8mimeTypeB5cxx11Ev
libexiv2.so.14:_ZNK5Exiv28RafImage10pixelWidthEv
libexiv2.so.14:_ZNK5Exiv28RafImage11pixelHeightEv
libexiv2.so.14:_ZNK5Exiv28RafImage8mimeTypeB5cxx11Ev
libexiv2.so.14:_ZNK5Exiv28RemoteIo3eofEv
libexiv2.so.14:_ZNK5Exiv28RemoteIo4pathB5cxx11Ev
libexiv2.so.14:_ZNK5Exiv28RemoteIo4sizeEv
libexiv2.so.14:_ZNK5Exiv28RemoteIo4tellEv
libexiv2.so.14:_ZNK5Exiv28RemoteIo5errorEv
libexiv2.so.14:_ZNK5Exiv28RemoteIo6isopenEv
libexiv2.so.14:_ZNK5Exiv28RemoteIo9temporaryEv
libexiv2.so.14:_ZNK5Exiv28Rw2Image10pixelWidthEv
libexiv2.so.14:_ZNK5Exiv28Rw2Image11pixelHeightEv
libexiv2.so.14:_ZNK5Exiv28Rw2Image8mimeTypeB5cxx11Ev
libexiv2.so.14:_ZNK5Exiv28TgaImage8mimeTypeB5cxx11Ev
libexiv2.so.14:_ZNK5Exiv28XmpValue12xmpArrayTypeEv
libexiv2.so.14:_ZNK5Exiv28XmpValue4copyEPhNS_9ByteOrderE
libexiv2.so.14:_ZNK5Exiv28XmpValue4sizeEv
libexiv2.so.14:_ZNK5Exiv28XmpValue9xmpStructEv
libexiv2.so.14:_ZNK5Exiv28Xmpdatum10familyNameEv
libexiv2.so.14:_ZNK5Exiv28Xmpdatum10toRationalEl
libexiv2.so.14:_ZNK5Exiv28Xmpdatum3keyB5cxx11Ev
libexiv2.so.14:_ZNK5Exiv28Xmpdatum3tagEv
libexiv2.so.14:_ZNK5Exiv28Xmpdatum4copyEPhNS_9ByteOrderE
libexiv2.so.14:_ZNK5Exiv28Xmpdatum4sizeEv
libexiv2.so.14:_ZNK5Exiv28Xmpdatum5countEv
libexiv2.so.14:_ZNK5Exiv28Xmpdatum5valueEv
libexiv2.so.14:_ZNK5Exiv28Xmpdatum5writeERSoPKNS_8ExifDataE
libexiv2.so.14:_ZNK5Exiv28Xmpdatum6toLongEl
libexiv2.so.14:_ZNK5Exiv28Xmpdatum6typeIdEv
libexiv2.so.14:_ZNK5Exiv28Xmpdatum7tagNameB5cxx11Ev
libexiv2.so.14:_ZNK5Exiv28Xmpdatum7toFloatEl
libexiv2.so.14:_ZNK5Exiv28Xmpdatum8getValueEv
libexiv2.so.14:_ZNK5Exiv28Xmpdatum8tagLabelB5cxx11Ev
libexiv2.so.14:_ZNK5Exiv28Xmpdatum8toStringB5cxx11El
libexiv2.so.14:_ZNK5Exiv28Xmpdatum8toStringB5cxx11Ev
libexiv2.so.14:_ZNK5Exiv28Xmpdatum8typeNameEv
libexiv2.so.14:_ZNK5Exiv28Xmpdatum8typeSizeEv
libexiv2.so.14:_ZNK5Exiv28Xmpdatum9groupNameB5cxx11Ev
libexiv2.so.14:_ZNK5Exiv29DataValue10toRationalEl
libexiv2.so.14:_ZNK5Exiv29DataValue4copyEPhNS_9ByteOrderE
libexiv2.so.14:_ZNK5Exiv29DataValue4sizeEv
libexiv2.so.14:_ZNK5Exiv29DataValue5countEv
libexiv2.so.14:_ZNK5Exiv29DataValue5writeERSo
libexiv2.so.14:_ZNK5Exiv29DataValue6clone_Ev
libexiv2.so.14:_ZNK5Exiv29DataValue6toLongEl
libexiv2.so.14:_ZNK5Exiv29DataValue7toFloatEl
libexiv2.so.14:_ZNK5Exiv29DataValue8toStringB5cxx11El
libexiv2.so.14:_ZNK5Exiv29DateValue10toRationalEl
libexiv2.so.14:_ZNK5Exiv29DateValue4copyEPhNS_9ByteOrderE
libexiv2.so.14:_ZNK5Exiv29DateValue4sizeEv
libexiv2.so.14:_ZNK5Exiv29DateValue5countEv
libexiv2.so.14:_ZNK5Exiv29DateValue5writeERSo
libexiv2.so.14:_ZNK5Exiv29DateValue6clone_Ev
libexiv2.so.14:_ZNK5Exiv29DateValue6toLongEl
libexiv2.so.14:_ZNK5Exiv29DateValue7getDateEv
libexiv2.so.14:_ZNK5Exiv29DateValue7toFloatEl
libexiv2.so.14:_ZNK5Exiv29Exifdatum10familyNameEv
libexiv2.so.14:_ZNK5Exiv29Exifdatum10toRationalEl
libexiv2.so.14:_ZNK5Exiv29Exifdatum12sizeDataAreaEv
libexiv2.so.14:_ZNK5Exiv29Exifdatum3idxEv
libexiv2.so.14:_ZNK5Exiv29Exifdatum3keyB5cxx11Ev
libexiv2.so.14:_ZNK5Exiv29Exifdatum3tagEv
libexiv2.so.14:_ZNK5Exiv29Exifdatum4copyEPhNS_9ByteOrderE
libexiv2.so.14:_ZNK5Exiv29Exifdatum4sizeEv
libexiv2.so.14:_ZNK5Exiv29Exifdatum5countEv
libexiv2.so.14:_ZNK5Exiv29Exifdatum5ifdIdEv
libexiv2.so.14:_ZNK5Exiv29Exifdatum5valueEv
libexiv2.so.14:_ZNK5Exiv29Exifdatum5writeERSoPKNS_8ExifDataE
libexiv2.so.14:_ZNK5Exiv29Exifdatum6toLongEl
libexiv2.so.14:_ZNK5Exiv29Exifdatum6typeIdEv
libexiv2.so.14:_ZNK5Exiv29Exifdatum7ifdNameEv
libexiv2.so.14:_ZNK5Exiv29Exifdatum7tagNameB5cxx11Ev
libexiv2.so.14:_ZNK5Exiv29Exifdatum7toFloatEl
libexiv2.so.14:_ZNK5Exiv29Exifdatum8dataAreaEv
libexiv2.so.14:_ZNK5Exiv29Exifdatum8getValueEv
libexiv2.so.14:_ZNK5Exiv29Exifdatum8tagLabelB5cxx11Ev
libexiv2.so.14:_ZNK5Exiv29Exifdatum8toStringB5cxx11El
libexiv2.so.14:_ZNK5Exiv29Exifdatum8toStringB5cxx11Ev
libexiv2.so.14:_ZNK5Exiv29Exifdatum8typeNameEv
libexiv2.so.14:_ZNK5Exiv29Exifdatum8typeSizeEv
libexiv2.so.14:_ZNK5Exiv29Exifdatum9groupNameB5cxx11Ev
libexiv2.so.14:_ZNK5Exiv29GroupInfoeqERKNS0_9GroupNameE
libexiv2.so.14:_ZNK5Exiv29GroupInfoeqEi
libexiv2.so.14:_ZNK5Exiv29Iptcdatum10familyNameEv
libexiv2.so.14:_ZNK5Exiv29Iptcdatum10recordNameB5cxx11Ev
libexiv2.so.14:_ZNK5Exiv29Iptcdatum10toRationalEl
libexiv2.so.14:_ZNK5Exiv29Iptcdatum3keyB5cxx11Ev
libexiv2.so.14:_ZNK5Exiv29Iptcdatum3tagEv
libexiv2.so.14:_ZNK5Exiv29Iptcdatum4copyEPhNS_9ByteOrderE
libexiv2.so.14:_ZNK5Exiv29Iptcdatum4sizeEv
libexiv2.so.14:_ZNK5Exiv29Iptcdatum5countEv
libexiv2.so.14:_ZNK5Exiv29Iptcdatum5valueEv
libexiv2.so.14:_ZNK5Exiv29Iptcdatum5writeERSoPKNS_8ExifDataE
libexiv2.so.14:_ZNK5Exiv29Iptcdatum6recordEv
libexiv2.so.14:_ZNK5Exiv29Iptcdatum6toLongEl
libexiv2.so.14:_ZNK5Exiv29Iptcdatum6typeIdEv
libexiv2.so.14:_ZNK5Exiv29Iptcdatum7tagNameB5cxx11Ev
libexiv2.so.14:_ZNK5Exiv29Iptcdatum7toFloatEl
libexiv2.so.14:_ZNK5Exiv29Iptcdatum8getValueEv
libexiv2.so.14:_ZNK5Exiv29Iptcdatum8tagLabelB5cxx11Ev
libexiv2.so.14:_ZNK5Exiv29Iptcdatum8toStringB5cxx11El
libexiv2.so.14:_ZNK5Exiv29Iptcdatum8toStringB5cxx11Ev
libexiv2.so.14:_ZNK5Exiv29Iptcdatum8typeNameEv
libexiv2.so.14:_ZNK5Exiv29Iptcdatum8typeSizeEv
libexiv2.so.14:_ZNK5Exiv29Iptcdatum9groupNameB5cxx11Ev
libexiv2.so.14:_ZNK5Exiv29JpegImage10isThisTypeERNS_7BasicIoEb
libexiv2.so.14:_ZNK5Exiv29JpegImage11writeHeaderERNS_7BasicIoE
libexiv2.so.14:_ZNK5Exiv29JpegImage8mimeTypeB5cxx11Ev
libexiv2.so.14:_ZNK5Exiv29Metadatum5printB5cxx11EPKNS_8ExifDataE
libexiv2.so.14:_ZNK5Exiv29TiffImage10pixelWidthEv
libexiv2.so.14:_ZNK5Exiv29TiffImage11pixelHeightEv
libexiv2.so.14:_ZNK5Exiv29TiffImage12primaryGroupB5cxx11Ev
libexiv2.so.14:_ZNK5Exiv29TiffImage8mimeTypeB5cxx11Ev
libexiv2.so.14:_ZNK5Exiv29TimeValue10toRationalEl
libexiv2.so.14:_ZNK5Exiv29TimeValue4copyEPhNS_9ByteOrderE
libexiv2.so.14:_ZNK5Exiv29TimeValue4sizeEv
libexiv2.so.14:_ZNK5Exiv29TimeValue5countEv
libexiv2.so.14:_ZNK5Exiv29TimeValue5writeERSo
libexiv2.so.14:_ZNK5Exiv29TimeValue6clone_Ev
libexiv2.so.14:_ZNK5Exiv29TimeValue6toLongEl
libexiv2.so.14:_ZNK5Exiv29TimeValue7getTimeEv
libexiv2.so.14:_ZNK5Exiv29TimeValue7toFloatEl
libexiv2.so.14:_ZNK5Exiv29XmpNsInfoeqERKNS0_2NsE
libexiv2.so.14:_ZNK5Exiv29XmpNsInfoeqERKNS0_6PrefixE
libexiv2.so.14:_ZNK7XMPMeta10DumpObjectEPFlPvPKcmES0_
libexiv2.so.14:_ZNK7XMPMeta11GetPropertyEPKcS1_PS1_PmS3_
libexiv2.so.14:_ZNK7XMPMeta12GetArrayItemEPKcS1_lPS1_PmS3_
libexiv2.so.14:_ZNK7XMPMeta12GetQualifierEPKcS1_S1_S1_PS1_PmS3_
libexiv2.so.14:_ZNK7XMPMeta12UnlockObjectEm
libexiv2.so.14:_ZNK7XMPMeta13GetObjectNameEPPKcPm
libexiv2.so.14:_ZNK7XMPMeta14GetStructFieldEPKcS1_S1_S1_PS1_PmS3_
libexiv2.so.14:_ZNK7XMPMeta15CountArrayItemsEPKcS1_
libexiv2.so.14:_ZNK7XMPMeta15GetProperty_IntEPKcS1_PlPm
libexiv2.so.14:_ZNK7XMPMeta16GetLocalizedTextEPKcS1_S1_S1_PS1_PmS2_S3_S3_
libexiv2.so.14:_ZNK7XMPMeta16GetObjectOptionsEv
libexiv2.so.14:_ZNK7XMPMeta16GetProperty_BoolEPKcS1_PbPm
libexiv2.so.14:_ZNK7XMPMeta16GetProperty_DateEPKcS1_P12XMP_DateTimePm
libexiv2.so.14:_ZNK7XMPMeta17DoesPropertyExistEPKcS1_
libexiv2.so.14:_ZNK7XMPMeta17GetProperty_FloatEPKcS1_PdPm
libexiv2.so.14:_ZNK7XMPMeta17GetProperty_Int64EPKcS1_PxPm
libexiv2.so.14:_ZNK7XMPMeta17SerializeToBufferEPPKcPmmmS1_S1_l
libexiv2.so.14:_ZNK7XMPMeta18DoesArrayItemExistEPKcS1_l
libexiv2.so.14:_ZNK7XMPMeta18DoesQualifierExistEPKcS1_S1_S1_
libexiv2.so.14:_ZNK7XMPMeta20DoesStructFieldExistEPKcS1_S1_S1_
libexiv2.so.14:_ZNK7XMPMeta5CloneEPS_m
libexiv2.so.14:_ZNK8XML_Node12GetAttrValueEPKc
libexiv2.so.14:_ZNK8XML_Node15IsEmptyLeafNodeEv
libexiv2.so.14:_ZNK8XML_Node16IsWhitespaceNodeEv
libexiv2.so.14:_ZNK8XML_Node17IsLeafContentNodeEv
libexiv2.so.14:_ZNK8XML_Node18CountNamedElementsEPKcS1_
libexiv2.so.14:_ZNK8XML_Node19GetLeafContentValueEv
libexiv2.so.14:main
